
.\rom_0x08003000.elf:     file format elf32-littlearm
.\rom_0x08003000.elf
architecture: arm, flags 0x00000112:
EXEC_P, HAS_SYMS, D_PAGED
start address 0x08003000

Program Header:
0x70000001 off    0x00010de8 vaddr 0x08010de8 paddr 0x08010de8 align 2**2
         filesz 0x00000008 memsz 0x00000008 flags r--
    LOAD off    0x00000000 vaddr 0x08000000 paddr 0x08000000 align 2**15
         filesz 0x00012718 memsz 0x00012718 flags r-x
    LOAD off    0x00018000 vaddr 0x20000000 paddr 0x08012718 align 2**15
         filesz 0x00000588 memsz 0x0000091c flags rw-
private flags = 5000202: [Version5 EABI] [soft-float ABI] [has entry point]

Sections:
Idx Name          Size      VMA       LMA       File off  Algn
  0 .text         0000dde8  08003000  08003000  00003000  2**3
                  CONTENTS, ALLOC, LOAD, READONLY, CODE
  1 .ARM.exidx    00000008  08010de8  08010de8  00010de8  2**2
                  CONTENTS, ALLOC, LOAD, READONLY, DATA
  2 .rodata       00001928  08010df0  08010df0  00010df0  2**3
                  CONTENTS, ALLOC, LOAD, READONLY, DATA
  3 .data         00000588  20000000  08012718  00018000  2**2
                  CONTENTS, ALLOC, LOAD, DATA
  4 .bss          00000394  20000588  08012ca0  00018588  2**2
                  ALLOC
  5 .debug_info   0000b35b  00000000  00000000  00018588  2**0
                  CONTENTS, READONLY, DEBUGGING
  6 .debug_abbrev 000019da  00000000  00000000  000238e3  2**0
                  CONTENTS, READONLY, DEBUGGING
  7 .debug_aranges 000001c0  00000000  00000000  000252c0  2**3
                  CONTENTS, READONLY, DEBUGGING
  8 .debug_line   00002c16  00000000  00000000  00025480  2**0
                  CONTENTS, READONLY, DEBUGGING
  9 .debug_str    000015c4  00000000  00000000  00028096  2**0
                  CONTENTS, READONLY, DEBUGGING
 10 .comment      00000030  00000000  00000000  0002965a  2**0
                  CONTENTS, READONLY
 11 .ARM.attributes 00000031  00000000  00000000  0002968a  2**0
                  CONTENTS, READONLY
 12 .debug_frame  00001798  00000000  00000000  000296bc  2**2
                  CONTENTS, READONLY, DEBUGGING
 13 .debug_loc    00005185  00000000  00000000  0002ae54  2**0
                  CONTENTS, READONLY, DEBUGGING
 14 .debug_ranges 00002d68  00000000  00000000  0002ffd9  2**0
                  CONTENTS, READONLY, DEBUGGING
SYMBOL TABLE:
08003000 l    d  .text	00000000 .text
08010de8 l    d  .ARM.exidx	00000000 .ARM.exidx
08010df0 l    d  .rodata	00000000 .rodata
20000000 l    d  .data	00000000 .data
20000588 l    d  .bss	00000000 .bss
00000000 l    d  .debug_info	00000000 .debug_info
00000000 l    d  .debug_abbrev	00000000 .debug_abbrev
00000000 l    d  .debug_aranges	00000000 .debug_aranges
00000000 l    d  .debug_line	00000000 .debug_line
00000000 l    d  .debug_str	00000000 .debug_str
00000000 l    d  .comment	00000000 .comment
00000000 l    d  .ARM.attributes	00000000 .ARM.attributes
00000000 l    d  .debug_frame	00000000 .debug_frame
00000000 l    d  .debug_loc	00000000 .debug_loc
00000000 l    d  .debug_ranges	00000000 .debug_ranges
00000000 l    df *ABS*	00000000 crt0.o
20004fff l       *ABS*	00000000 RAM_END
20004c00 l       *ABS*	00000000 PSP_BASE
20004c00 l       *ABS*	00000000 MSP_LIMIT
20005000 l       *ABS*	00000000 MSP_BASE
00000400 l       *ABS*	00000000 MSP_SIZE
08003179 l       .text	00000000 _PSR
0800313a l       .text	00000000 _loop
0800316c l       .text	00000000 fmt
0800317d l       .text	00000000 _r0
08003181 l       .text	00000000 _r1
08003185 l       .text	00000000 _r2
08003189 l       .text	00000000 _r3
0800318d l       .text	00000000 _r4
08003191 l       .text	00000000 _r5
08003195 l       .text	00000000 _r6
08003199 l       .text	00000000 _r7
0800319d l       .text	00000000 _r8
080031a1 l       .text	00000000 _r9
080031a5 l       .text	00000000 _r10
080031a9 l       .text	00000000 _r11
080031ad l       .text	00000000 _r12
080031b1 l       .text	00000000 _PSP
00000000 l    df *ABS*	00000000 clock.c
00000000 l    df *ABS*	00000000 core_cm3.c
00000000 l    df *ABS*	00000000 graphics.c
08010df0 l       .rodata	00000000 .LANCHOR0
00000000 l    df *ABS*	00000000 jog_key.c
00000000 l    df *ABS*	00000000 key.c
00000000 l    df *ABS*	00000000 lcd.c
20000588 l       .bss	00000000 .LANCHOR0
00000000 l    df *ABS*	00000000 led.c
00000000 l    df *ABS*	00000000 main.c
08006e08 l     F .text	00000014 k0
20000598 l       .bss	00000000 .LANCHOR0
08006e1c l     F .text	00000018 k1
08006e34 l     F .text	00000014 k2
08006e48 l     F .text	0000001a k3
08006f6c l     F .text	00000134 Enemy_Bullet_Move
08011df8 l       .rodata	00000000 .LANCHOR1
080070a0 l     F .text	000000fc Score
0800719c l     F .text	00000120 Enemy_Move
080072bc l     F .text	000000c2 Player_Move
08007380 l     F .text	00000444 render_hearts.constprop.7
08011df8 l     O .rodata	0000000c color
08011e04 l     O .rodata	00000010 key_func.5426
08011f40 l     O .rodata	00000030 tone_value.5381
20000598 l     O .bss	00000018 Player
200005b0 l     O .bss	000001e0 Enemy_Bullet
20000790 l     O .bss	00000018 Enemy
200007a8 l     O .bss	000000f0 Player_Bullet
20000898 l     O .bss	00000004 score
2000089c l     O .bss	0000001c item
200008b8 l     O .bss	00000001 gameState
00000000 l    df *ABS*	00000000 runtime.c
200008bc l       .bss	00000000 .LANCHOR0
200008bc l     O .bss	00000004 heap.4868
00000000 l    df *ABS*	00000000 stm32f10x_it.c
08009fcc l     F .text	00000038 Stack_Dump
200008c0 l       .bss	00000000 .LANCHOR1
08011f70 l       .rodata	00000000 .LANCHOR0
08011f70 l     O .rodata	00000020 Stack_reg
08011f90 l     O .rodata	00000020 EXTI9_5_LUT.5005
08011fb0 l     O .rodata	00000010 EXTI15_10_LUT.5060
00000000 l    df *ABS*	00000000 systick.c
00000000 l    df *ABS*	00000000 timer.c
00000000 l    df *ABS*	00000000 uart.c
00000000 l    df *ABS*	00000000 atoi.c
00000000 l    df *ABS*	00000000 ctype_.c
00000000 l    df *ABS*	00000000 memcpy-stub.c
00000000 l    df *ABS*	00000000 rand.c
00000000 l    df *ABS*	00000000 strlen.c
00000000 l    df *ABS*	00000000 strtol.c
00000000 l    df *ABS*	00000000 vsprintf.c
00000000 l    df *ABS*	00000000 impure.c
2000000c l     O .data	000000f0 impure_data
00000000 l    df *ABS*	00000000 malloc.c
00000000 l    df *ABS*	00000000 mallocr.c
200000fc l       .data	00000000 .LANCHOR0
200008d8 l       .bss	00000000 .LANCHOR1
00000000 l    df *ABS*	00000000 mlock.c
00000000 l    df *ABS*	00000000 sbrkr.c
00000000 l    df *ABS*	00000000 vfprintf.c
080120c8 l       .rodata	00000000 .LANCHOR0
080120c8 l     O .rodata	00000010 blanks.6752
080120d8 l     O .rodata	00000010 zeroes.6753
00000000 l    df *ABS*	00000000 dtoa.c
0800c8c0 l     F .text	0000014a quorem
00000000 l    df *ABS*	00000000 mallocr.c
00000000 l    df *ABS*	00000000 locale.c
2000050c l       .data	00000000 .LANCHOR0
2000050c l     O .data	00000020 lc_ctype_charset
20000530 l     O .data	00000020 lc_message_charset
20000550 l     O .data	00000038 lconv
00000000 l    df *ABS*	00000000 memchr-stub.c
00000000 l    df *ABS*	00000000 mprec.c
080120e8 l       .rodata	00000000 .LANCHOR0
080120e8 l     O .rodata	0000000c p05.5301
00000000 l    df *ABS*	00000000 reent.c
00000000 l    df *ABS*	00000000 s_fpclassify.c
00000000 l    df *ABS*	00000000 lib_a-strcmp.o
00000000 l    df *ABS*	00000000 vfprintf.c
08012210 l       .rodata	00000000 .LANCHOR0
08012210 l     O .rodata	00000010 blanks.6696
08012220 l     O .rodata	00000010 zeroes.6697
00000000 l    df *ABS*	00000000 mallocr.c
00000000 l    df *ABS*	00000000 memmove.c
00000000 l    df *ABS*	00000000 memset.c
00000000 l    df *ABS*	00000000 mallocr.c
00000000 l    df *ABS*	00000000 _udivsi3.o
0800fb58 l       .text	00000000 .udivsi3_skip_div0_test
00000000 l       *ABS*	00000000 shift
00000000 l    df *ABS*	00000000 _dvmd_tls.o
00000000 l    df *ABS*	00000000 _arm_addsubdf3.o
00000000 l    df *ABS*	00000000 _arm_muldivdf3.o
00000000 l    df *ABS*	00000000 _arm_cmpdf2.o
00000000 l    df *ABS*	00000000 _arm_fixdfsi.o
00000000 l    df *ABS*	00000000 _arm_fixunsdfsi.o
00000000 l    df *ABS*	00000000 _aeabi_uldivmod.o
00000000 l    df *ABS*	00000000 bpabi.c
00000000 l    df *ABS*	00000000 libgcc2.c
00000000 l    df *ABS*	00000000 libgcc2.c
00000000 l    df *ABS*	00000000 
0800a224 g     F .text	00000006 EXTI2_IRQHandler
0800328c g     F .text	00000006 __set_PRIMASK
0800e55c g     F .text	00000034 _mprec_log10
0800e5d8 g     F .text	0000005e __any_on
080121c0 g     O .rodata	00000028 __mprec_tinytens
0801063c g     F .text	00000012 .hidden __aeabi_dcmple
0800e638 g     F .text	0000001a cleanup_glue
08010764 g     F .text	00000030 .hidden __gnu_uldivmod_helper
08003c00 g     F .text	00000026 Key_Poll_Init
08010578 g     F .text	0000007a .hidden __cmpdf2
0800a1b4 g     F .text	00000010 DebugMon_Handler
08010578 g     F .text	0000007a .hidden __eqdf2
20000000 g     O .data	00000002 BACK_COLOR
08010794 g     F .text	00000352 .hidden __divdi3
080100e8 g     F .text	0000005a .hidden __floatdidf
0800ae2c g     F .text	0000001a vsprintf
0800a324 g     F .text	00000006 TIM1_CC_IRQHandler
0800a048 g     F .text	0000012a HardFault_Handler
0800dbd4 g     F .text	00000052 _setlocale_r
08010df8 g     O .rodata	00001000 eng8x16
08003a5c g     F .text	00000034 Jog_Get_Pressed
0800b3dc g     F .text	00000002 __malloc_unlock
0800429c g     F .text	0000005e Lcd_Write_RAM_Prepare
200008d4 g     O .bss	00000004 USART1_rx_data
08003294 g     F .text	00000006 __get_FAULTMASK
0800a1d4 g     F .text	0000000e SysTick_Handler
080032b4 g     F .text	00000004 __REV
0800a1ec g     F .text	00000006 PVD_IRQHandler
0800f5fc g     F .text	000000ce memmove
08003e58 g     F .text	00000062 Lcd_Reset
0800a1c4 g     F .text	00000010 PendSV_Handler
0800a038 g     F .text	00000010 NMI_Handler
0800dd00 g     F .text	0000006c _Balloc
0800a22c g     F .text	00000032 EXTI3_IRQHandler
08010568 g     F .text	0000008a .hidden __gtdf2
080032f0 g     F .text	00000006 __STREXW
080032d8 g     F .text	00000006 __LDREXW
20000918 g     O .bss	00000004 errno
08010604 g     F .text	00000010 .hidden __aeabi_cdcmple
20000594 g     O .bss	00000002 POINT_COLOR
0800a490 g     F .text	0000000c SysTick_Get_Load_Time
08009044 g     F .text	00000f44 Main
08006ebc g     F .text	00000056 drawReady2Screen
08003ebc g     F .text	00000052 Lcd_WR_REG
0800aaa0 g     F .text	000000a6 memcpy
080105f4 g     F .text	00000020 .hidden __aeabi_cdrcmple
08006dc4 g     F .text	0000001c LED_Display
08004af0 g     F .text	00000006 Lcd_Clr_Screen
0800b408 g     F .text	000014b4 _svfprintf_r
08010078 g     F .text	00000022 .hidden __floatsidf
08010570 g     F .text	00000082 .hidden __ltdf2
0800a2a8 g     F .text	00000006 USB_HP_CAN_TX_IRQHandler
08003f10 g     F .text	00000052 Lcd_WR_DATA
0800a214 g     F .text	00000006 EXTI0_IRQHandler
08006df4 g     F .text	00000012 LED_All_Off
0800a370 g     F .text	00000006 I2C2_EV_IRQHandler
200008c0 g     O .bss	00000004 SysTick_Flag
08010708 g     F .text	00000000 .hidden __aeabi_uldivmod
0800e72c g     F .text	00000050 __fpclassifyd
0800e4fc g     F .text	0000005e __ratio
080032c0 g     F .text	00000006 __RBIT
20000000 g       .data	00000000 __RW_BASE__
0800ae48 g     F .text	00000010 malloc
0800fb58 g     F .text	0000025c .hidden __udivsi3
080120f8 g     O .rodata	000000c8 __mprec_tens
0800a194 g     F .text	00000010 UsageFault_Handler
0800329c g     F .text	00000006 __set_FAULTMASK
0800dc28 g     F .text	0000000a __locale_charset
080106c8 g     F .text	00000040 .hidden __fixunsdfsi
0800a2a0 g     F .text	00000006 ADC1_2_IRQHandler
200008d8 g     O .bss	00000004 __malloc_top_pad
08007874 g     F .text	00000056 drawGameOverScreen
08006e64 g     F .text	00000056 drawReady1Screen
2000052c g     O .data	00000004 __mb_cur_max
08010058 g     F .text	0000001e .hidden __aeabi_ui2d
080081a8 g     F .text	00000032 draw_item
0800dc4c g     F .text	00000008 _localeconv_r
080034f4 g     F .text	0000022c Lcd_Puts
0800df5c g     F .text	00000012 __i2b
08004660 g     F .text	000000b8 Lcd_Fill
0800a380 g     F .text	00000006 SPI1_IRQHandler
0800a2c0 g     F .text	00000006 CAN_SCE_IRQHandler
0800fdd4 g     F .text	00000000 .hidden __aeabi_drsub
0800b3e0 g     F .text	00000026 _sbrk_r
0800a1f4 g     F .text	00000006 TAMPER_IRQHandler
08006d94 g     F .text	0000002e LED_Init
0800a700 g     F .text	00000022 TIM3_Out_Stop
08010628 g     F .text	00000012 .hidden __aeabi_dcmplt
080031ec g     F .text	00000068 Clock_Init
20000904 g     O .bss	00000004 __malloc_max_sbrked_mem
0801009c g     F .text	0000003a .hidden __extendsfdf2
08010398 g     F .text	000001d0 .hidden __aeabi_ddiv
0800fde0 g     F .text	00000276 .hidden __adddf3
20000588 g       .data	00000000 __RW_LIMIT__
0800a860 g     F .text	00000060 Uart1_Printf
0800e394 g     F .text	000000ac __b2d
08010144 g     F .text	00000254 .hidden __aeabi_dmul
080032a4 g     F .text	00000006 __get_CONTROL
080120c4 g     O .rodata	00000004 _global_impure_ptr
0800f76c g     F .text	000003ea _realloc_r
08003978 g     F .text	0000007c Jog_Poll_Init
08010ae8 g     F .text	00000300 .hidden __udivdi3
0800a280 g     F .text	00000006 DMA1_Channel4_IRQHandler
080121e8 g     O .rodata	00000028 __mprec_bigtens
0800de30 g     F .text	00000098 __s2b
08010058 g     F .text	0000001e .hidden __floatunsidf
08009f88 g     F .text	00000044 _sbrk
0800e220 g     F .text	00000042 __mcmp
0800a8c0 g     F .text	00000016 Uart1_Get_Pressed
080069d4 g     F .text	000003c0 Lcd_Put_Pixel
0800addc g     F .text	0000001a strtol
0800aa48 g     F .text	00000042 Uart1_RX_Interrupt_Enable
0800a3b0 g     F .text	00000006 USART3_IRQHandler
0800a1fc g     F .text	00000006 RTC_IRQHandler
08003254 g     F .text	00000008 __get_PSP
08003c68 g     F .text	0000008a Key_ISR_Enable
0800325c g     F .text	00000006 __set_PSP
0800a298 g     F .text	00000006 DMA1_Channel7_IRQHandler
0800e654 g     F .text	000000d6 _reclaim_reent
0800dec8 g     F .text	0000003c __hi0bits
08010678 g     F .text	0000004e .hidden __fixdfsi
08004af8 g     F .text	000000b4 Lcd_Draw_Box
08003f64 g     F .text	00000336 Lcd_Set_Display_Mode
0800a33c g     F .text	00000022 TIM4_IRQHandler
0800fde0 g     F .text	00000276 .hidden __aeabi_dadd
08010570 g     F .text	00000082 .hidden __ledf2
0800a2b8 g     F .text	00000006 CAN_RX1_IRQHandler
0800e0b0 g     F .text	000000b8 __pow5mult
080100d8 g     F .text	0000006a .hidden __aeabi_ul2d
20000914 g     O .bss	00000004 __nlocale_changed
00000000  w      *UND*	00000000 __sf_fake_stderr
080031b8 g     F .text	00000000 _HardFault_Handler
0800a360 g     F .text	00000006 I2C1_EV_IRQHandler
080030ec g     F .text	00000000 __start
080032c8 g     F .text	00000008 __LDREXB
08003d38 g     F .text	000000a2 Lcd_Write_Reg
0800aa98 g     F .text	00000008 _atoi_r
08010664 g     F .text	00000012 .hidden __aeabi_dcmpgt
0800a290 g     F .text	00000006 DMA1_Channel6_IRQHandler
0800dc70 g     F .text	00000090 memchr
0800da3c g     F .text	00000198 _free_r
0800a334 g     F .text	00000006 TIM3_IRQHandler
0800a20c g     F .text	00000006 RCC_IRQHandler
0800dc34 g     F .text	0000000c __locale_mb_cur_max
08003b08 g     F .text	000000f8 Jog_ISR_Enable
080042fc g     F .text	00000364 Lcd_Set_Windows
08010650 g     F .text	00000012 .hidden __aeabi_dcmpge
0800a31c g     F .text	00000006 TIM1_TRG_COM_IRQHandler
0800a268 g     F .text	00000006 DMA1_Channel1_IRQHandler
08003284 g     F .text	00000006 __get_PRIMASK
20000910 g     O .bss	00000004 __mlocale_changed
0800fddc g     F .text	0000027a .hidden __aeabi_dsub
20000504 g     O .data	00000004 __malloc_sbrk_base
00000588 g       *ABS*	00000000 __RW_SIZE__
080100d8 g     F .text	0000006a .hidden __floatundidf
0800aba4 g     F .text	0000009c rand
0800e168 g     F .text	000000b6 __lshift
0800e9b8 g     F .text	00000104 __ssprint_r
0800a3b8 g     F .text	00000046 EXTI15_10_IRQHandler
08003720 g     F .text	00000256 Lcd_Printf
200008d0 g     O .bss	00000004 USART1_rx_ready
080077c4 g     F .text	00000056 drawStartScreen
08012718 g       *ABS*	00000000 __RW_LOAD_ADDR__
0800a458 g     F .text	0000001c SysTick_Run
080032bc g     F .text	00000004 __REVSH
0800df70 g     F .text	00000140 __multiply
200008dc g     O .bss	00000028 __malloc_current_mallinfo
0800e440 g     F .text	000000ba __d2b
08003c3c g     F .text	00000014 Key_Wait_Key_Released
08003ddc g     F .text	0000007a Lcd_Write_Data_16Bit
08010078 g     F .text	00000022 .hidden __aeabi_i2d
08003000 g       .text	00000000 __RO_BASE__
0800fdd0  w    F .text	00000002 .hidden __aeabi_ldiv0
0800a2c8 g     F .text	00000044 EXTI9_5_IRQHandler
08010398 g     F .text	000001d0 .hidden __divdf3
08007b6c g     F .text	000005b0 render_hearts
0800e590 g     F .text	00000046 __copybits
200000fc g     O .data	00000408 __malloc_av_
08010144 g     F .text	00000254 .hidden __muldf3
0800b3d8 g     F .text	00000002 __malloc_lock
0800f598 g     F .text	00000062 _calloc_r
0800a4b0 g     F .text	000000f4 TIM2_Delay
0800a388 g     F .text	00000006 SPI2_IRQHandler
00000000  w      *UND*	00000000 __sf_fake_stdin
0800a2b0 g     F .text	00000006 USB_LP_CAN_RX0_IRQHandler
0800f6cc g     F .text	0000009e memset
0800a174 g     F .text	00000010 MemManage_Handler
080081dc g     F .text	000001b4 item_func
20000908 g     O .bss	00000004 __malloc_max_total_mem
0800ab48 g     F .text	0000005a srand
20000918 g       .bss	00000000 __ZI_LIMIT__
08008390 g     F .text	00000030 System_Init
08008950 g     F .text	000006f4 Play_Level
0800fb58 g     F .text	00000000 .hidden __aeabi_uidiv
0800a1a4 g     F .text	00000010 SVC_Handler
0800a410 g     F .text	00000048 SysTick_OS_Tick
08003a90 g     F .text	0000003c Jog_Wait_Key_Pressed
080032f8 g     F .text	000001fa Lcd_Eng_Putch
0800aca0 g     F .text	0000013c _strtol_r
080032ac g     F .text	00000006 __set_CONTROL
0800ca0c g     F .text	00000f8a _dtoa_r
0800ae68 g     F .text	0000056e _malloc_r
080100e8 g     F .text	0000005a .hidden __aeabi_l2d
0800a81c g     F .text	00000042 Uart1_Send_String
0800a7e0 g     F .text	0000003a Uart1_Send_Byte
080083c0 g     F .text	00000590 Ready_State
08003c28 g     F .text	00000012 Key_Get_Pressed
0800a65c g     F .text	0000004c TIM3_Out_Init
08006de0 g     F .text	00000012 LED_All_On
0800a288 g     F .text	00000006 DMA1_Channel5_IRQHandler
0800a260 g     F .text	00000006 EXTI4_IRQHandler
200008c4 g     O .bss	00000004 Jog_key_in
0800d998 g     F .text	000000a2 _malloc_trim_r
0800e77c g     F .text	00000000 strcmp
08006f14 g     F .text	00000056 drawReady3Screen
08003264 g     F .text	00000008 __get_MSP
08012718 g       .rodata	00000000 __RO_LIMIT__
08010578 g     F .text	0000007a .hidden __nedf2
2000090c g     O .bss	00000004 _PathLocale
20000588 g     O .bss	0000000c lcddev
08004718 g     F .text	00000342 Lcd_Set_Cursor
080078cc g     F .text	000002a0 Draw_Heart
0800adf8 g     F .text	00000032 _vsprintf_r
0800a278 g     F .text	00000006 DMA1_Channel3_IRQHandler
0800dc54 g     F .text	00000012 setlocale
080032b8 g     F .text	00000004 __REV16
20000008 g     O .data	00000004 _impure_ptr
0800a314 g     F .text	00000006 TIM1_UP_IRQHandler
0800dc48 g     F .text	00000004 __locale_cjk_lang
200008cc g     O .bss	00000004 TIM4_expired
08011e14 g     O .rodata	00000009 heart_bitmap
0800eabc g     F .text	00000adc _svfiprintf_r
00000394 g       *ABS*	00000000 __ZI_SIZE__
0800a1e4 g     F .text	00000006 WWDG_IRQHandler
0800326c g     F .text	00000006 __set_MSP
0800e350 g     F .text	00000042 __ulp
080039f4 g     F .text	00000066 Jog_Get_Pressed_Calm
0800a474 g     F .text	0000000e SysTick_Stop
08004bac g     F .text	00001e26 Lcd_Init
0800a32c g     F .text	00000006 TIM2_IRQHandler
0800811c g     F .text	0000008c try_spawn_item
08003cf4 g     F .text	00000042 Lcd_GPIO_Init
080106c8 g     F .text	00000040 .hidden __aeabi_d2uiz
20000588 g       .bss	00000000 __ZI_BASE__
0800dc68 g     F .text	00000008 localeconv
0800a30c g     F .text	00000006 TIM1_BRK_IRQHandler
0800fdb4 g     F .text	0000001a .hidden __aeabi_uidivmod
0800a21c g     F .text	00000006 EXTI1_IRQHandler
0800781c g     F .text	00000056 drawGameClearScreen
0800327c g     F .text	00000006 __set_BASEPRI
08010614 g     F .text	00000012 .hidden __aeabi_dcmpeq
08003c50 g     F .text	00000016 Key_Wait_Key_Pressed
0800a728 g     F .text	000000b8 Uart1_Init
0800a400 g     F .text	00000006 RTCAlarm_IRQHandler
0800a3a8 g     F .text	00000006 USART2_IRQHandler
20000508 g     O .data	00000004 __malloc_trim_threshold
0800dc40 g     F .text	00000008 __locale_msgcharset
080032e8 g     F .text	00000008 __STREXH
0800e264 g     F .text	000000ea __mdiff
08010678 g     F .text	0000004e .hidden __aeabi_d2iz
20000004 g     O .data	00000004 __ctype_ptr__
080032d0 g     F .text	00000008 __LDREXH
0800a378 g     F .text	00000006 I2C2_ER_IRQHandler
0800a270 g     F .text	00000006 DMA1_Channel2_IRQHandler
00000000  w      *UND*	00000000 __sf_fake_stdout
0800aa90 g     F .text	00000008 atoi
08011fc0 g     O .rodata	00000101 _ctype_
0800fdd0  w    F .text	00000002 .hidden __aeabi_idiv0
0800a8f0 g     F .text	0000009c Uart1_Get_String
0800a204 g     F .text	00000006 FLASH_IRQHandler
08004a5c g     F .text	00000094 Lcd_Draw_Back_Color
0800a184 g     F .text	00000010 BusFault_Handler
0800a390 g     F .text	00000016 USART1_IRQHandler
0800a484 g     F .text	0000000c SysTick_Get_Time
0800ac40 g     F .text	0000005e strlen
0800a5a4 g     F .text	000000b6 TIM4_Repeat_Interrupt_Enable
08003274 g     F .text	00000006 __get_BASEPRI
08010604 g     F .text	00000010 .hidden __aeabi_cdcmpeq
08010568 g     F .text	0000008a .hidden __gedf2
0800a8d8 g     F .text	00000018 Uart1_Get_Char
08010734 g     F .text	00000030 .hidden __gnu_ldivmod_helper
0800a368 g     F .text	00000006 I2C1_ER_IRQHandler
0800a6a8 g     F .text	00000058 TIM3_Out_Freq_Generation
0801009c g     F .text	0000003a .hidden __aeabi_f2d
08003acc g     F .text	0000003c Jog_Wait_Key_Released
080032e0 g     F .text	00000008 __STREXB
0800fddc g     F .text	0000027a .hidden __subdf3
08003126 g     F .text	00000000 _Print_Reg
0800df04 g     F .text	00000056 __lo0bits
200008c8 g     O .bss	00000004 Jog_key
0800a004 g     F .text	00000032 Invalid_ISR
0800a98c g     F .text	000000ba Uart1_Get_Int_Num
0800a49c g     F .text	00000010 SysTick_Check_Timeout
0800a408 g     F .text	00000006 USBWakeUp_IRQHandler
0800ae58 g     F .text	00000010 free
0800dda4 g     F .text	0000008c __multadd
0800dd6c g     F .text	00000036 _Bfree



Disassembly of section .text:

08003000 <__RO_BASE__>:
 8003000:	20005000 	andcs	r5, r0, r0
 8003004:	080030ed 	stmdaeq	r0, {r0, r2, r3, r5, r6, r7, ip, sp}
 8003008:	00000000 	andeq	r0, r0, r0
 800300c:	080031b9 	stmdaeq	r0, {r0, r3, r4, r5, r7, r8, ip, sp}
	...
 800303c:	0800a1d5 	stmdaeq	r0, {r0, r2, r4, r6, r7, r8, sp, pc}
 8003040:	0800a1e5 	stmdaeq	r0, {r0, r2, r5, r6, r7, r8, sp, pc}
 8003044:	0800a1ed 	stmdaeq	r0, {r0, r2, r3, r5, r6, r7, r8, sp, pc}
 8003048:	0800a1f5 	stmdaeq	r0, {r0, r2, r4, r5, r6, r7, r8, sp, pc}
 800304c:	0800a1fd 	stmdaeq	r0, {r0, r2, r3, r4, r5, r6, r7, r8, sp, pc}
 8003050:	0800a205 	stmdaeq	r0, {r0, r2, r9, sp, pc}
 8003054:	0800a20d 	stmdaeq	r0, {r0, r2, r3, r9, sp, pc}
 8003058:	0800a215 	stmdaeq	r0, {r0, r2, r4, r9, sp, pc}
 800305c:	0800a21d 	stmdaeq	r0, {r0, r2, r3, r4, r9, sp, pc}
 8003060:	0800a225 	stmdaeq	r0, {r0, r2, r5, r9, sp, pc}
 8003064:	0800a22d 	stmdaeq	r0, {r0, r2, r3, r5, r9, sp, pc}
 8003068:	0800a261 	stmdaeq	r0, {r0, r5, r6, r9, sp, pc}
 800306c:	0800a269 	stmdaeq	r0, {r0, r3, r5, r6, r9, sp, pc}
 8003070:	0800a271 	stmdaeq	r0, {r0, r4, r5, r6, r9, sp, pc}
 8003074:	0800a279 	stmdaeq	r0, {r0, r3, r4, r5, r6, r9, sp, pc}
 8003078:	0800a281 	stmdaeq	r0, {r0, r7, r9, sp, pc}
 800307c:	0800a289 	stmdaeq	r0, {r0, r3, r7, r9, sp, pc}
 8003080:	0800a291 	stmdaeq	r0, {r0, r4, r7, r9, sp, pc}
 8003084:	0800a299 	stmdaeq	r0, {r0, r3, r4, r7, r9, sp, pc}
 8003088:	0800a2a1 	stmdaeq	r0, {r0, r5, r7, r9, sp, pc}
	...
 800309c:	0800a2c9 	stmdaeq	r0, {r0, r3, r6, r7, r9, sp, pc}
 80030a0:	0800a30d 	stmdaeq	r0, {r0, r2, r3, r8, r9, sp, pc}
 80030a4:	0800a315 	stmdaeq	r0, {r0, r2, r4, r8, r9, sp, pc}
 80030a8:	0800a31d 	stmdaeq	r0, {r0, r2, r3, r4, r8, r9, sp, pc}
 80030ac:	0800a325 	stmdaeq	r0, {r0, r2, r5, r8, r9, sp, pc}
 80030b0:	0800a32d 	stmdaeq	r0, {r0, r2, r3, r5, r8, r9, sp, pc}
 80030b4:	0800a335 	stmdaeq	r0, {r0, r2, r4, r5, r8, r9, sp, pc}
 80030b8:	0800a33d 	stmdaeq	r0, {r0, r2, r3, r4, r5, r8, r9, sp, pc}
 80030bc:	0800a361 	stmdaeq	r0, {r0, r5, r6, r8, r9, sp, pc}
 80030c0:	0800a369 	stmdaeq	r0, {r0, r3, r5, r6, r8, r9, sp, pc}
 80030c4:	0800a371 	stmdaeq	r0, {r0, r4, r5, r6, r8, r9, sp, pc}
 80030c8:	0800a379 	stmdaeq	r0, {r0, r3, r4, r5, r6, r8, r9, sp, pc}
 80030cc:	0800a381 	stmdaeq	r0, {r0, r7, r8, r9, sp, pc}
 80030d0:	0800a389 	stmdaeq	r0, {r0, r3, r7, r8, r9, sp, pc}
 80030d4:	0800a391 	stmdaeq	r0, {r0, r4, r7, r8, r9, sp, pc}
 80030d8:	0800a3a9 	stmdaeq	r0, {r0, r3, r5, r7, r8, r9, sp, pc}
 80030dc:	0800a3b1 	stmdaeq	r0, {r0, r4, r5, r7, r8, r9, sp, pc}
 80030e0:	0800a3b9 	stmdaeq	r0, {r0, r3, r4, r5, r7, r8, r9, sp, pc}
 80030e4:	0800a401 	stmdaeq	r0, {r0, sl, sp, pc}
 80030e8:	0800a409 	stmdaeq	r0, {r0, r3, sl, sp, pc}

080030ec <__start>:
 80030ec:	4837      	ldr	r0, [pc, #220]	; (80031cc <_HardFault_Handler+0x14>)
 80030ee:	4938      	ldr	r1, [pc, #224]	; (80031d0 <_HardFault_Handler+0x18>)
 80030f0:	4b38      	ldr	r3, [pc, #224]	; (80031d4 <_HardFault_Handler+0x1c>)
 80030f2:	4288      	cmp	r0, r1
 80030f4:	d006      	beq.n	8003104 <__start+0x18>
 80030f6:	4299      	cmp	r1, r3
 80030f8:	bf3e      	ittt	cc
 80030fa:	f850 2b04 	ldrcc.w	r2, [r0], #4
 80030fe:	f841 2b04 	strcc.w	r2, [r1], #4
 8003102:	e7f8      	bcc.n	80030f6 <__start+0xa>
 8003104:	4934      	ldr	r1, [pc, #208]	; (80031d8 <_HardFault_Handler+0x20>)
 8003106:	f04f 0200 	mov.w	r2, #0
 800310a:	428b      	cmp	r3, r1
 800310c:	bf3c      	itt	cc
 800310e:	f843 2b04 	strcc.w	r2, [r3], #4
 8003112:	e7fa      	bcc.n	800310a <__start+0x1e>
 8003114:	4831      	ldr	r0, [pc, #196]	; (80031dc <_HardFault_Handler+0x24>)
 8003116:	f380 8809 	msr	PSP, r0
 800311a:	4831      	ldr	r0, [pc, #196]	; (80031e0 <_HardFault_Handler+0x28>)
 800311c:	f380 8814 	msr	CONTROL, r0
 8003120:	f005 ff90 	bl	8009044 <Main>
 8003124:	e7fe      	b.n	8003124 <__start+0x38>

08003126 <_Print_Reg>:
 8003126:	e92d 5fff 	stmdb	sp!, {r0, r1, r2, r3, r4, r5, r6, r7, r8, r9, sl, fp, ip, lr}
 800312a:	f3ef 8103 	mrs	r1, PSR
 800312e:	b403      	push	{r0, r1}
 8003130:	f04f 060e 	mov.w	r6, #14
 8003134:	f04f 0404 	mov.w	r4, #4
 8003138:	4d2a      	ldr	r5, [pc, #168]	; (80031e4 <_HardFault_Handler+0x2c>)

0800313a <_loop>:
 800313a:	482b      	ldr	r0, [pc, #172]	; (80031e8 <_HardFault_Handler+0x30>)
 800313c:	4629      	mov	r1, r5
 800313e:	f85d 2004 	ldr.w	r2, [sp, r4]
 8003142:	f007 fb8d 	bl	800a860 <Uart1_Printf>
 8003146:	f104 0404 	add.w	r4, r4, #4
 800314a:	f105 0504 	add.w	r5, r5, #4
 800314e:	3e01      	subs	r6, #1
 8003150:	dcf3      	bgt.n	800313a <_loop>
 8003152:	4825      	ldr	r0, [pc, #148]	; (80031e8 <_HardFault_Handler+0x30>)
 8003154:	4629      	mov	r1, r5
 8003156:	f3ef 8209 	mrs	r2, PSP
 800315a:	f007 fb81 	bl	800a860 <Uart1_Printf>
 800315e:	bc03      	pop	{r0, r1}
 8003160:	f381 8800 	msr	CPSR_f, r1
 8003164:	f381 8807 	msr	IEPSR, r1
 8003168:	e8bd 9fff 	ldmia.w	sp!, {r0, r1, r2, r3, r4, r5, r6, r7, r8, r9, sl, fp, ip, pc}

0800316c <fmt>:
 800316c:	3a207325 	bcc	881fe08 <__RW_LOAD_ADDR__+0x80d6f0>
 8003170:	25783020 	ldrbcs	r3, [r8, #-32]!	; 0xffffffe0
 8003174:	0a58382e 	beq	9611234 <__RW_LOAD_ADDR__+0x15feb1c>
	...

08003179 <_PSR>:
 8003179:	00525350 	subseq	r5, r2, r0, asr r3

0800317d <_r0>:
 800317d:	00303052 	eorseq	r3, r0, r2, asr r0

08003181 <_r1>:
 8003181:	00313052 	eorseq	r3, r1, r2, asr r0

08003185 <_r2>:
 8003185:	00323052 	eorseq	r3, r2, r2, asr r0

08003189 <_r3>:
 8003189:	00333052 	eorseq	r3, r3, r2, asr r0

0800318d <_r4>:
 800318d:	00343052 	eorseq	r3, r4, r2, asr r0

08003191 <_r5>:
 8003191:	00353052 	eorseq	r3, r5, r2, asr r0

08003195 <_r6>:
 8003195:	00363052 	eorseq	r3, r6, r2, asr r0

08003199 <_r7>:
 8003199:	00373052 	eorseq	r3, r7, r2, asr r0

0800319d <_r8>:
 800319d:	00383052 	eorseq	r3, r8, r2, asr r0

080031a1 <_r9>:
 80031a1:	00393052 	eorseq	r3, r9, r2, asr r0

080031a5 <_r10>:
 80031a5:	00303152 	eorseq	r3, r0, r2, asr r1

080031a9 <_r11>:
 80031a9:	00313152 	eorseq	r3, r1, r2, asr r1

080031ad <_r12>:
 80031ad:	00323152 	eorseq	r3, r2, r2, asr r1

080031b1 <_PSP>:
 80031b1:	00505350 	subseq	r5, r0, r0, asr r3
 80031b5:	01bf0000 			; <UNDEFINED> instruction: 0x01bf0000

080031b8 <_HardFault_Handler>:
 80031b8:	b501      	push	{r0, lr}
 80031ba:	f7ff ffb4 	bl	8003126 <_Print_Reg>
 80031be:	a802      	add	r0, sp, #8
 80031c0:	9901      	ldr	r1, [sp, #4]
 80031c2:	f3ef 8209 	mrs	r2, PSP
 80031c6:	f006 ff3f 	bl	800a048 <HardFault_Handler>
 80031ca:	bd01      	pop	{r0, pc}
 80031cc:	08012718 	stmdaeq	r1, {r3, r4, r8, r9, sl, sp}
 80031d0:	20000000 	andcs	r0, r0, r0
 80031d4:	20000588 	andcs	r0, r0, r8, lsl #11
 80031d8:	20000918 	andcs	r0, r0, r8, lsl r9
 80031dc:	20004c00 	andcs	r4, r0, r0, lsl #24
 80031e0:	00000002 	andeq	r0, r0, r2
 80031e4:	08003179 	stmdaeq	r0, {r0, r3, r4, r5, r6, r8, ip, sp}
 80031e8:	0800316c 	stmdaeq	r0, {r2, r3, r5, r6, r8, ip, sp}

080031ec <Clock_Init>:
 80031ec:	f44f 5380 	mov.w	r3, #4096	; 0x1000
 80031f0:	f2c4 0302 	movt	r3, #16386	; 0x4002
 80031f4:	2201      	movs	r2, #1
 80031f6:	601a      	str	r2, [r3, #0]
 80031f8:	681a      	ldr	r2, [r3, #0]
 80031fa:	4619      	mov	r1, r3
 80031fc:	f442 3280 	orr.w	r2, r2, #65536	; 0x10000
 8003200:	601a      	str	r2, [r3, #0]
 8003202:	680a      	ldr	r2, [r1, #0]
 8003204:	f44f 5380 	mov.w	r3, #4096	; 0x1000
 8003208:	0390      	lsls	r0, r2, #14
 800320a:	f2c4 0302 	movt	r3, #16386	; 0x4002
 800320e:	d5f8      	bpl.n	8003202 <Clock_Init+0x16>
 8003210:	f44f 6280 	mov.w	r2, #1024	; 0x400
 8003214:	f2c0 021d 	movt	r2, #29
 8003218:	605a      	str	r2, [r3, #4]
 800321a:	681a      	ldr	r2, [r3, #0]
 800321c:	4619      	mov	r1, r3
 800321e:	f042 7280 	orr.w	r2, r2, #16777216	; 0x1000000
 8003222:	601a      	str	r2, [r3, #0]
 8003224:	680a      	ldr	r2, [r1, #0]
 8003226:	f44f 5380 	mov.w	r3, #4096	; 0x1000
 800322a:	0192      	lsls	r2, r2, #6
 800322c:	f2c4 0302 	movt	r3, #16386	; 0x4002
 8003230:	d5f8      	bpl.n	8003224 <Clock_Init+0x38>
 8003232:	f44f 5200 	mov.w	r2, #8192	; 0x2000
 8003236:	f2c4 0202 	movt	r2, #16386	; 0x4002
 800323a:	6811      	ldr	r1, [r2, #0]
 800323c:	f021 0103 	bic.w	r1, r1, #3
 8003240:	f041 0102 	orr.w	r1, r1, #2
 8003244:	6011      	str	r1, [r2, #0]
 8003246:	685a      	ldr	r2, [r3, #4]
 8003248:	f022 0203 	bic.w	r2, r2, #3
 800324c:	f042 0202 	orr.w	r2, r2, #2
 8003250:	605a      	str	r2, [r3, #4]
 8003252:	4770      	bx	lr

08003254 <__get_PSP>:
 8003254:	f3ef 8009 	mrs	r0, PSP
 8003258:	4600      	mov	r0, r0
 800325a:	4770      	bx	lr

0800325c <__set_PSP>:
 800325c:	f380 8809 	msr	PSP, r0
 8003260:	4770      	bx	lr
 8003262:	bf00      	nop

08003264 <__get_MSP>:
 8003264:	f3ef 8008 	mrs	r0, MSP
 8003268:	4600      	mov	r0, r0
 800326a:	4770      	bx	lr

0800326c <__set_MSP>:
 800326c:	f380 8808 	msr	MSP, r0
 8003270:	4770      	bx	lr
 8003272:	bf00      	nop

08003274 <__get_BASEPRI>:
 8003274:	f3ef 8012 	mrs	r0, BASEPRI_MAX
 8003278:	4770      	bx	lr
 800327a:	bf00      	nop

0800327c <__set_BASEPRI>:
 800327c:	f380 8811 	msr	BASEPRI, r0
 8003280:	4770      	bx	lr
 8003282:	bf00      	nop

08003284 <__get_PRIMASK>:
 8003284:	f3ef 8010 	mrs	r0, PRIMASK
 8003288:	4770      	bx	lr
 800328a:	bf00      	nop

0800328c <__set_PRIMASK>:
 800328c:	f380 8810 	msr	PRIMASK, r0
 8003290:	4770      	bx	lr
 8003292:	bf00      	nop

08003294 <__get_FAULTMASK>:
 8003294:	f3ef 8013 	mrs	r0, FAULTMASK
 8003298:	4770      	bx	lr
 800329a:	bf00      	nop

0800329c <__set_FAULTMASK>:
 800329c:	f380 8813 	msr	FAULTMASK, r0
 80032a0:	4770      	bx	lr
 80032a2:	bf00      	nop

080032a4 <__get_CONTROL>:
 80032a4:	f3ef 8014 	mrs	r0, CONTROL
 80032a8:	4770      	bx	lr
 80032aa:	bf00      	nop

080032ac <__set_CONTROL>:
 80032ac:	f380 8814 	msr	CONTROL, r0
 80032b0:	4770      	bx	lr
 80032b2:	bf00      	nop

080032b4 <__REV>:
 80032b4:	ba00      	rev	r0, r0
 80032b6:	4770      	bx	lr

080032b8 <__REV16>:
 80032b8:	ba40      	rev16	r0, r0
 80032ba:	4770      	bx	lr

080032bc <__REVSH>:
 80032bc:	bac0      	revsh	r0, r0
 80032be:	4770      	bx	lr

080032c0 <__RBIT>:
 80032c0:	fa90 f0a0 	rbit	r0, r0
 80032c4:	4770      	bx	lr
 80032c6:	bf00      	nop

080032c8 <__LDREXB>:
 80032c8:	e8d0 0f4f 	ldrexb	r0, [r0]
 80032cc:	b2c0      	uxtb	r0, r0
 80032ce:	4770      	bx	lr

080032d0 <__LDREXH>:
 80032d0:	e8d0 0f5f 	ldrexh	r0, [r0]
 80032d4:	b280      	uxth	r0, r0
 80032d6:	4770      	bx	lr

080032d8 <__LDREXW>:
 80032d8:	e850 0f00 	ldrex	r0, [r0]
 80032dc:	4770      	bx	lr
 80032de:	bf00      	nop

080032e0 <__STREXB>:
 80032e0:	e8c1 0f43 	strexb	r3, r0, [r1]
 80032e4:	4618      	mov	r0, r3
 80032e6:	4770      	bx	lr

080032e8 <__STREXH>:
 80032e8:	e8c1 0f53 	strexh	r3, r0, [r1]
 80032ec:	4618      	mov	r0, r3
 80032ee:	4770      	bx	lr

080032f0 <__STREXW>:
 80032f0:	e841 0000 	strex	r0, r0, [r1]
 80032f4:	4770      	bx	lr
 80032f6:	bf00      	nop

080032f8 <Lcd_Eng_Putch>:
 80032f8:	e92d 4ff0 	stmdb	sp!, {r4, r5, r6, r7, r8, r9, sl, fp, lr}
 80032fc:	f640 54f0 	movw	r4, #3568	; 0xdf0
 8003300:	f6c0 0401 	movt	r4, #2049	; 0x801
 8003304:	b093      	sub	sp, #76	; 0x4c
 8003306:	4680      	mov	r8, r0
 8003308:	4689      	mov	r9, r1
 800330a:	6820      	ldr	r0, [r4, #0]
 800330c:	6861      	ldr	r1, [r4, #4]
 800330e:	ae08      	add	r6, sp, #32
 8003310:	c603      	stmia	r6!, {r0, r1}
 8003312:	9d1c      	ldr	r5, [sp, #112]	; 0x70
 8003314:	4694      	mov	ip, r2
 8003316:	eb04 1505 	add.w	r5, r4, r5, lsl #4
 800331a:	f855 0f08 	ldr.w	r0, [r5, #8]!
 800331e:	469a      	mov	sl, r3
 8003320:	6869      	ldr	r1, [r5, #4]
 8003322:	68aa      	ldr	r2, [r5, #8]
 8003324:	68eb      	ldr	r3, [r5, #12]
 8003326:	ac0a      	add	r4, sp, #40	; 0x28
 8003328:	c40f      	stmia	r4!, {r0, r1, r2, r3}
 800332a:	9f1d      	ldr	r7, [sp, #116]	; 0x74
 800332c:	6928      	ldr	r0, [r5, #16]
 800332e:	6969      	ldr	r1, [r5, #20]
 8003330:	69aa      	ldr	r2, [r5, #24]
 8003332:	69eb      	ldr	r3, [r5, #28]
 8003334:	9e1e      	ldr	r6, [sp, #120]	; 0x78
 8003336:	c40f      	stmia	r4!, {r0, r1, r2, r3}
 8003338:	1e78      	subs	r0, r7, #1
 800333a:	4242      	negs	r2, r0
 800333c:	4142      	adcs	r2, r0
 800333e:	1ebc      	subs	r4, r7, #2
 8003340:	4267      	negs	r7, r4
 8003342:	4167      	adcs	r7, r4
 8003344:	1e75      	subs	r5, r6, #1
 8003346:	4269      	negs	r1, r5
 8003348:	4169      	adcs	r1, r5
 800334a:	3e02      	subs	r6, #2
 800334c:	4273      	negs	r3, r6
 800334e:	4173      	adcs	r3, r6
 8003350:	fa1f f989 	uxth.w	r9, r9
 8003354:	f8cd 901c 	str.w	r9, [sp, #28]
 8003358:	fa1f f888 	uxth.w	r8, r8
 800335c:	ea02 0601 	and.w	r6, r2, r1
 8003360:	401a      	ands	r2, r3
 8003362:	403b      	ands	r3, r7
 8003364:	f8cd 800c 	str.w	r8, [sp, #12]
 8003368:	4039      	ands	r1, r7
 800336a:	9306      	str	r3, [sp, #24]
 800336c:	f8dd 801c 	ldr.w	r8, [sp, #28]
 8003370:	2300      	movs	r3, #0
 8003372:	fa1f fa8a 	uxth.w	sl, sl
 8003376:	fa1f f98c 	uxth.w	r9, ip
 800337a:	9101      	str	r1, [sp, #4]
 800337c:	9204      	str	r2, [sp, #16]
 800337e:	9302      	str	r3, [sp, #8]
 8003380:	9a02      	ldr	r2, [sp, #8]
 8003382:	9f07      	ldr	r7, [sp, #28]
 8003384:	f108 0301 	add.w	r3, r8, #1
 8003388:	b29b      	uxth	r3, r3
 800338a:	4417      	add	r7, r2
 800338c:	b2bf      	uxth	r7, r7
 800338e:	f8dd b00c 	ldr.w	fp, [sp, #12]
 8003392:	9305      	str	r3, [sp, #20]
 8003394:	ab0a      	add	r3, sp, #40	; 0x28
 8003396:	5c9d      	ldrb	r5, [r3, r2]
 8003398:	463b      	mov	r3, r7
 800339a:	2400      	movs	r4, #0
 800339c:	465f      	mov	r7, fp
 800339e:	469b      	mov	fp, r3
 80033a0:	e010      	b.n	80033c4 <Lcd_Eng_Putch+0xcc>
 80033a2:	2e00      	cmp	r6, #0
 80033a4:	d152      	bne.n	800344c <Lcd_Eng_Putch+0x154>
 80033a6:	9b01      	ldr	r3, [sp, #4]
 80033a8:	2b00      	cmp	r3, #0
 80033aa:	d157      	bne.n	800345c <Lcd_Eng_Putch+0x164>
 80033ac:	9b04      	ldr	r3, [sp, #16]
 80033ae:	2b00      	cmp	r3, #0
 80033b0:	d177      	bne.n	80034a2 <Lcd_Eng_Putch+0x1aa>
 80033b2:	9b06      	ldr	r3, [sp, #24]
 80033b4:	2b00      	cmp	r3, #0
 80033b6:	f040 8088 	bne.w	80034ca <Lcd_Eng_Putch+0x1d2>
 80033ba:	3401      	adds	r4, #1
 80033bc:	1cbb      	adds	r3, r7, #2
 80033be:	2c08      	cmp	r4, #8
 80033c0:	b29f      	uxth	r7, r3
 80033c2:	d02f      	beq.n	8003424 <Lcd_Eng_Putch+0x12c>
 80033c4:	ab08      	add	r3, sp, #32
 80033c6:	5d1a      	ldrb	r2, [r3, r4]
 80033c8:	4215      	tst	r5, r2
 80033ca:	d1ea      	bne.n	80033a2 <Lcd_Eng_Putch+0xaa>
 80033cc:	2e00      	cmp	r6, #0
 80033ce:	d135      	bne.n	800343c <Lcd_Eng_Putch+0x144>
 80033d0:	9b01      	ldr	r3, [sp, #4]
 80033d2:	2b00      	cmp	r3, #0
 80033d4:	d14e      	bne.n	8003474 <Lcd_Eng_Putch+0x17c>
 80033d6:	9b04      	ldr	r3, [sp, #16]
 80033d8:	2b00      	cmp	r3, #0
 80033da:	d157      	bne.n	800348c <Lcd_Eng_Putch+0x194>
 80033dc:	9b06      	ldr	r3, [sp, #24]
 80033de:	2b00      	cmp	r3, #0
 80033e0:	d0eb      	beq.n	80033ba <Lcd_Eng_Putch+0xc2>
 80033e2:	4638      	mov	r0, r7
 80033e4:	9905      	ldr	r1, [sp, #20]
 80033e6:	4652      	mov	r2, sl
 80033e8:	f003 faf4 	bl	80069d4 <Lcd_Put_Pixel>
 80033ec:	f107 0c01 	add.w	ip, r7, #1
 80033f0:	fa1f fc8c 	uxth.w	ip, ip
 80033f4:	4660      	mov	r0, ip
 80033f6:	4641      	mov	r1, r8
 80033f8:	4652      	mov	r2, sl
 80033fa:	f8cd c000 	str.w	ip, [sp]
 80033fe:	f003 fae9 	bl	80069d4 <Lcd_Put_Pixel>
 8003402:	4638      	mov	r0, r7
 8003404:	4641      	mov	r1, r8
 8003406:	4652      	mov	r2, sl
 8003408:	f003 fae4 	bl	80069d4 <Lcd_Put_Pixel>
 800340c:	f8dd c000 	ldr.w	ip, [sp]
 8003410:	9905      	ldr	r1, [sp, #20]
 8003412:	4660      	mov	r0, ip
 8003414:	4652      	mov	r2, sl
 8003416:	3401      	adds	r4, #1
 8003418:	f003 fadc 	bl	80069d4 <Lcd_Put_Pixel>
 800341c:	1cbb      	adds	r3, r7, #2
 800341e:	2c08      	cmp	r4, #8
 8003420:	b29f      	uxth	r7, r3
 8003422:	d1cf      	bne.n	80033c4 <Lcd_Eng_Putch+0xcc>
 8003424:	9b02      	ldr	r3, [sp, #8]
 8003426:	f108 0802 	add.w	r8, r8, #2
 800342a:	3301      	adds	r3, #1
 800342c:	2b10      	cmp	r3, #16
 800342e:	9302      	str	r3, [sp, #8]
 8003430:	fa1f f888 	uxth.w	r8, r8
 8003434:	d1a4      	bne.n	8003380 <Lcd_Eng_Putch+0x88>
 8003436:	b013      	add	sp, #76	; 0x4c
 8003438:	e8bd 8ff0 	ldmia.w	sp!, {r4, r5, r6, r7, r8, r9, sl, fp, pc}
 800343c:	9803      	ldr	r0, [sp, #12]
 800343e:	4659      	mov	r1, fp
 8003440:	4420      	add	r0, r4
 8003442:	b280      	uxth	r0, r0
 8003444:	4652      	mov	r2, sl
 8003446:	f003 fac5 	bl	80069d4 <Lcd_Put_Pixel>
 800344a:	e7b6      	b.n	80033ba <Lcd_Eng_Putch+0xc2>
 800344c:	9803      	ldr	r0, [sp, #12]
 800344e:	4659      	mov	r1, fp
 8003450:	4420      	add	r0, r4
 8003452:	b280      	uxth	r0, r0
 8003454:	464a      	mov	r2, r9
 8003456:	f003 fabd 	bl	80069d4 <Lcd_Put_Pixel>
 800345a:	e7ae      	b.n	80033ba <Lcd_Eng_Putch+0xc2>
 800345c:	4638      	mov	r0, r7
 800345e:	4659      	mov	r1, fp
 8003460:	464a      	mov	r2, r9
 8003462:	f003 fab7 	bl	80069d4 <Lcd_Put_Pixel>
 8003466:	1c78      	adds	r0, r7, #1
 8003468:	b280      	uxth	r0, r0
 800346a:	4659      	mov	r1, fp
 800346c:	464a      	mov	r2, r9
 800346e:	f003 fab1 	bl	80069d4 <Lcd_Put_Pixel>
 8003472:	e7a2      	b.n	80033ba <Lcd_Eng_Putch+0xc2>
 8003474:	4638      	mov	r0, r7
 8003476:	4659      	mov	r1, fp
 8003478:	4652      	mov	r2, sl
 800347a:	f003 faab 	bl	80069d4 <Lcd_Put_Pixel>
 800347e:	1c78      	adds	r0, r7, #1
 8003480:	b280      	uxth	r0, r0
 8003482:	4659      	mov	r1, fp
 8003484:	4652      	mov	r2, sl
 8003486:	f003 faa5 	bl	80069d4 <Lcd_Put_Pixel>
 800348a:	e796      	b.n	80033ba <Lcd_Eng_Putch+0xc2>
 800348c:	f8dd c00c 	ldr.w	ip, [sp, #12]
 8003490:	4641      	mov	r1, r8
 8003492:	44a4      	add	ip, r4
 8003494:	fa1f fc8c 	uxth.w	ip, ip
 8003498:	4660      	mov	r0, ip
 800349a:	4652      	mov	r2, sl
 800349c:	f8cd c000 	str.w	ip, [sp]
 80034a0:	e7b2      	b.n	8003408 <Lcd_Eng_Putch+0x110>
 80034a2:	f8dd c00c 	ldr.w	ip, [sp, #12]
 80034a6:	4641      	mov	r1, r8
 80034a8:	44a4      	add	ip, r4
 80034aa:	fa1f fc8c 	uxth.w	ip, ip
 80034ae:	4660      	mov	r0, ip
 80034b0:	464a      	mov	r2, r9
 80034b2:	f8cd c000 	str.w	ip, [sp]
 80034b6:	f003 fa8d 	bl	80069d4 <Lcd_Put_Pixel>
 80034ba:	f8dd c000 	ldr.w	ip, [sp]
 80034be:	9905      	ldr	r1, [sp, #20]
 80034c0:	4660      	mov	r0, ip
 80034c2:	464a      	mov	r2, r9
 80034c4:	f003 fa86 	bl	80069d4 <Lcd_Put_Pixel>
 80034c8:	e777      	b.n	80033ba <Lcd_Eng_Putch+0xc2>
 80034ca:	4638      	mov	r0, r7
 80034cc:	9905      	ldr	r1, [sp, #20]
 80034ce:	464a      	mov	r2, r9
 80034d0:	f003 fa80 	bl	80069d4 <Lcd_Put_Pixel>
 80034d4:	f107 0c01 	add.w	ip, r7, #1
 80034d8:	fa1f fc8c 	uxth.w	ip, ip
 80034dc:	4660      	mov	r0, ip
 80034de:	4641      	mov	r1, r8
 80034e0:	464a      	mov	r2, r9
 80034e2:	f8cd c000 	str.w	ip, [sp]
 80034e6:	f003 fa75 	bl	80069d4 <Lcd_Put_Pixel>
 80034ea:	4638      	mov	r0, r7
 80034ec:	4641      	mov	r1, r8
 80034ee:	464a      	mov	r2, r9
 80034f0:	e7e1      	b.n	80034b6 <Lcd_Eng_Putch+0x1be>
 80034f2:	bf00      	nop

080034f4 <Lcd_Puts>:
 80034f4:	e92d 4ff0 	stmdb	sp!, {r4, r5, r6, r7, r8, r9, sl, fp, lr}
 80034f8:	b097      	sub	sp, #92	; 0x5c
 80034fa:	9c20      	ldr	r4, [sp, #128]	; 0x80
 80034fc:	9009      	str	r0, [sp, #36]	; 0x24
 80034fe:	7825      	ldrb	r5, [r4, #0]
 8003500:	9821      	ldr	r0, [sp, #132]	; 0x84
 8003502:	9f22      	ldr	r7, [sp, #136]	; 0x88
 8003504:	2d00      	cmp	r5, #0
 8003506:	f000 80ad 	beq.w	8003664 <Lcd_Puts+0x170>
 800350a:	f1b0 0901 	subs.w	r9, r0, #1
 800350e:	f1d9 0b00 	rsbs	fp, r9, #0
 8003512:	eb5b 0b09 	adcs.w	fp, fp, r9
 8003516:	f1b7 0a01 	subs.w	sl, r7, #1
 800351a:	f1da 0800 	rsbs	r8, sl, #0
 800351e:	eb58 080a 	adcs.w	r8, r8, sl
 8003522:	1ebe      	subs	r6, r7, #2
 8003524:	4277      	negs	r7, r6
 8003526:	4177      	adcs	r7, r6
 8003528:	f1b0 0902 	subs.w	r9, r0, #2
 800352c:	f1d9 0c00 	rsbs	ip, r9, #0
 8003530:	fa1f fa82 	uxth.w	sl, r2
 8003534:	ea0b 0207 	and.w	r2, fp, r7
 8003538:	eb5c 0c09 	adcs.w	ip, ip, r9
 800353c:	9204      	str	r2, [sp, #16]
 800353e:	f640 52f0 	movw	r2, #3568	; 0xdf0
 8003542:	b289      	uxth	r1, r1
 8003544:	fa1f f983 	uxth.w	r9, r3
 8003548:	ea0c 0707 	and.w	r7, ip, r7
 800354c:	ea0c 0308 	and.w	r3, ip, r8
 8003550:	00c0      	lsls	r0, r0, #3
 8003552:	f6c0 0201 	movt	r2, #2049	; 0x801
 8003556:	940a      	str	r4, [sp, #40]	; 0x28
 8003558:	9107      	str	r1, [sp, #28]
 800355a:	ea0b 0608 	and.w	r6, fp, r8
 800355e:	9301      	str	r3, [sp, #4]
 8003560:	9706      	str	r7, [sp, #24]
 8003562:	900b      	str	r0, [sp, #44]	; 0x2c
 8003564:	9208      	str	r2, [sp, #32]
 8003566:	9b08      	ldr	r3, [sp, #32]
 8003568:	ac0e      	add	r4, sp, #56	; 0x38
 800356a:	6818      	ldr	r0, [r3, #0]
 800356c:	6859      	ldr	r1, [r3, #4]
 800356e:	eb03 1505 	add.w	r5, r3, r5, lsl #4
 8003572:	ab0c      	add	r3, sp, #48	; 0x30
 8003574:	c303      	stmia	r3!, {r0, r1}
 8003576:	f855 0f08 	ldr.w	r0, [r5, #8]!
 800357a:	f8dd 801c 	ldr.w	r8, [sp, #28]
 800357e:	6869      	ldr	r1, [r5, #4]
 8003580:	68aa      	ldr	r2, [r5, #8]
 8003582:	68eb      	ldr	r3, [r5, #12]
 8003584:	c40f      	stmia	r4!, {r0, r1, r2, r3}
 8003586:	69eb      	ldr	r3, [r5, #28]
 8003588:	6928      	ldr	r0, [r5, #16]
 800358a:	6969      	ldr	r1, [r5, #20]
 800358c:	69aa      	ldr	r2, [r5, #24]
 800358e:	2500      	movs	r5, #0
 8003590:	c40f      	stmia	r4!, {r0, r1, r2, r3}
 8003592:	9b09      	ldr	r3, [sp, #36]	; 0x24
 8003594:	9502      	str	r5, [sp, #8]
 8003596:	b29b      	uxth	r3, r3
 8003598:	9303      	str	r3, [sp, #12]
 800359a:	9f07      	ldr	r7, [sp, #28]
 800359c:	f108 0301 	add.w	r3, r8, #1
 80035a0:	442f      	add	r7, r5
 80035a2:	b29b      	uxth	r3, r3
 80035a4:	b2bf      	uxth	r7, r7
 80035a6:	f8dd b00c 	ldr.w	fp, [sp, #12]
 80035aa:	9305      	str	r3, [sp, #20]
 80035ac:	aa0e      	add	r2, sp, #56	; 0x38
 80035ae:	463b      	mov	r3, r7
 80035b0:	5d55      	ldrb	r5, [r2, r5]
 80035b2:	465f      	mov	r7, fp
 80035b4:	2400      	movs	r4, #0
 80035b6:	469b      	mov	fp, r3
 80035b8:	e011      	b.n	80035de <Lcd_Puts+0xea>
 80035ba:	2e00      	cmp	r6, #0
 80035bc:	d15d      	bne.n	800367a <Lcd_Puts+0x186>
 80035be:	9a01      	ldr	r2, [sp, #4]
 80035c0:	2a00      	cmp	r2, #0
 80035c2:	d162      	bne.n	800368a <Lcd_Puts+0x196>
 80035c4:	9b04      	ldr	r3, [sp, #16]
 80035c6:	2b00      	cmp	r3, #0
 80035c8:	f040 8082 	bne.w	80036d0 <Lcd_Puts+0x1dc>
 80035cc:	9a06      	ldr	r2, [sp, #24]
 80035ce:	2a00      	cmp	r2, #0
 80035d0:	f040 8092 	bne.w	80036f8 <Lcd_Puts+0x204>
 80035d4:	3401      	adds	r4, #1
 80035d6:	1cbb      	adds	r3, r7, #2
 80035d8:	2c08      	cmp	r4, #8
 80035da:	b29f      	uxth	r7, r3
 80035dc:	d02f      	beq.n	800363e <Lcd_Puts+0x14a>
 80035de:	ab0c      	add	r3, sp, #48	; 0x30
 80035e0:	5d1a      	ldrb	r2, [r3, r4]
 80035e2:	4215      	tst	r5, r2
 80035e4:	d1e9      	bne.n	80035ba <Lcd_Puts+0xc6>
 80035e6:	2e00      	cmp	r6, #0
 80035e8:	d13f      	bne.n	800366a <Lcd_Puts+0x176>
 80035ea:	9b01      	ldr	r3, [sp, #4]
 80035ec:	2b00      	cmp	r3, #0
 80035ee:	d158      	bne.n	80036a2 <Lcd_Puts+0x1ae>
 80035f0:	9a04      	ldr	r2, [sp, #16]
 80035f2:	2a00      	cmp	r2, #0
 80035f4:	d161      	bne.n	80036ba <Lcd_Puts+0x1c6>
 80035f6:	9b06      	ldr	r3, [sp, #24]
 80035f8:	2b00      	cmp	r3, #0
 80035fa:	d0eb      	beq.n	80035d4 <Lcd_Puts+0xe0>
 80035fc:	4638      	mov	r0, r7
 80035fe:	9905      	ldr	r1, [sp, #20]
 8003600:	464a      	mov	r2, r9
 8003602:	f003 f9e7 	bl	80069d4 <Lcd_Put_Pixel>
 8003606:	f107 0c01 	add.w	ip, r7, #1
 800360a:	fa1f fc8c 	uxth.w	ip, ip
 800360e:	4660      	mov	r0, ip
 8003610:	4641      	mov	r1, r8
 8003612:	464a      	mov	r2, r9
 8003614:	f8cd c000 	str.w	ip, [sp]
 8003618:	f003 f9dc 	bl	80069d4 <Lcd_Put_Pixel>
 800361c:	4638      	mov	r0, r7
 800361e:	4641      	mov	r1, r8
 8003620:	464a      	mov	r2, r9
 8003622:	f003 f9d7 	bl	80069d4 <Lcd_Put_Pixel>
 8003626:	f8dd c000 	ldr.w	ip, [sp]
 800362a:	9905      	ldr	r1, [sp, #20]
 800362c:	4660      	mov	r0, ip
 800362e:	464a      	mov	r2, r9
 8003630:	3401      	adds	r4, #1
 8003632:	f003 f9cf 	bl	80069d4 <Lcd_Put_Pixel>
 8003636:	1cbb      	adds	r3, r7, #2
 8003638:	2c08      	cmp	r4, #8
 800363a:	b29f      	uxth	r7, r3
 800363c:	d1cf      	bne.n	80035de <Lcd_Puts+0xea>
 800363e:	9d02      	ldr	r5, [sp, #8]
 8003640:	f108 0802 	add.w	r8, r8, #2
 8003644:	3501      	adds	r5, #1
 8003646:	2d10      	cmp	r5, #16
 8003648:	9502      	str	r5, [sp, #8]
 800364a:	fa1f f888 	uxth.w	r8, r8
 800364e:	d1a4      	bne.n	800359a <Lcd_Puts+0xa6>
 8003650:	9b0a      	ldr	r3, [sp, #40]	; 0x28
 8003652:	9a09      	ldr	r2, [sp, #36]	; 0x24
 8003654:	f813 5f01 	ldrb.w	r5, [r3, #1]!
 8003658:	930a      	str	r3, [sp, #40]	; 0x28
 800365a:	9b0b      	ldr	r3, [sp, #44]	; 0x2c
 800365c:	441a      	add	r2, r3
 800365e:	9209      	str	r2, [sp, #36]	; 0x24
 8003660:	2d00      	cmp	r5, #0
 8003662:	d180      	bne.n	8003566 <Lcd_Puts+0x72>
 8003664:	b017      	add	sp, #92	; 0x5c
 8003666:	e8bd 8ff0 	ldmia.w	sp!, {r4, r5, r6, r7, r8, r9, sl, fp, pc}
 800366a:	9803      	ldr	r0, [sp, #12]
 800366c:	4659      	mov	r1, fp
 800366e:	4420      	add	r0, r4
 8003670:	b280      	uxth	r0, r0
 8003672:	464a      	mov	r2, r9
 8003674:	f003 f9ae 	bl	80069d4 <Lcd_Put_Pixel>
 8003678:	e7ac      	b.n	80035d4 <Lcd_Puts+0xe0>
 800367a:	9803      	ldr	r0, [sp, #12]
 800367c:	4659      	mov	r1, fp
 800367e:	4420      	add	r0, r4
 8003680:	b280      	uxth	r0, r0
 8003682:	4652      	mov	r2, sl
 8003684:	f003 f9a6 	bl	80069d4 <Lcd_Put_Pixel>
 8003688:	e7a4      	b.n	80035d4 <Lcd_Puts+0xe0>
 800368a:	4638      	mov	r0, r7
 800368c:	4659      	mov	r1, fp
 800368e:	4652      	mov	r2, sl
 8003690:	f003 f9a0 	bl	80069d4 <Lcd_Put_Pixel>
 8003694:	1c78      	adds	r0, r7, #1
 8003696:	b280      	uxth	r0, r0
 8003698:	4659      	mov	r1, fp
 800369a:	4652      	mov	r2, sl
 800369c:	f003 f99a 	bl	80069d4 <Lcd_Put_Pixel>
 80036a0:	e798      	b.n	80035d4 <Lcd_Puts+0xe0>
 80036a2:	4638      	mov	r0, r7
 80036a4:	4659      	mov	r1, fp
 80036a6:	464a      	mov	r2, r9
 80036a8:	f003 f994 	bl	80069d4 <Lcd_Put_Pixel>
 80036ac:	1c78      	adds	r0, r7, #1
 80036ae:	b280      	uxth	r0, r0
 80036b0:	4659      	mov	r1, fp
 80036b2:	464a      	mov	r2, r9
 80036b4:	f003 f98e 	bl	80069d4 <Lcd_Put_Pixel>
 80036b8:	e78c      	b.n	80035d4 <Lcd_Puts+0xe0>
 80036ba:	f8dd c00c 	ldr.w	ip, [sp, #12]
 80036be:	4641      	mov	r1, r8
 80036c0:	44a4      	add	ip, r4
 80036c2:	fa1f fc8c 	uxth.w	ip, ip
 80036c6:	4660      	mov	r0, ip
 80036c8:	464a      	mov	r2, r9
 80036ca:	f8cd c000 	str.w	ip, [sp]
 80036ce:	e7a8      	b.n	8003622 <Lcd_Puts+0x12e>
 80036d0:	f8dd c00c 	ldr.w	ip, [sp, #12]
 80036d4:	4641      	mov	r1, r8
 80036d6:	44a4      	add	ip, r4
 80036d8:	fa1f fc8c 	uxth.w	ip, ip
 80036dc:	4660      	mov	r0, ip
 80036de:	4652      	mov	r2, sl
 80036e0:	f8cd c000 	str.w	ip, [sp]
 80036e4:	f003 f976 	bl	80069d4 <Lcd_Put_Pixel>
 80036e8:	f8dd c000 	ldr.w	ip, [sp]
 80036ec:	9905      	ldr	r1, [sp, #20]
 80036ee:	4660      	mov	r0, ip
 80036f0:	4652      	mov	r2, sl
 80036f2:	f003 f96f 	bl	80069d4 <Lcd_Put_Pixel>
 80036f6:	e76d      	b.n	80035d4 <Lcd_Puts+0xe0>
 80036f8:	4638      	mov	r0, r7
 80036fa:	9905      	ldr	r1, [sp, #20]
 80036fc:	4652      	mov	r2, sl
 80036fe:	f003 f969 	bl	80069d4 <Lcd_Put_Pixel>
 8003702:	f107 0c01 	add.w	ip, r7, #1
 8003706:	fa1f fc8c 	uxth.w	ip, ip
 800370a:	4660      	mov	r0, ip
 800370c:	4641      	mov	r1, r8
 800370e:	4652      	mov	r2, sl
 8003710:	f8cd c000 	str.w	ip, [sp]
 8003714:	f003 f95e 	bl	80069d4 <Lcd_Put_Pixel>
 8003718:	4638      	mov	r0, r7
 800371a:	4641      	mov	r1, r8
 800371c:	4652      	mov	r2, sl
 800371e:	e7e1      	b.n	80036e4 <Lcd_Puts+0x1f0>

08003720 <Lcd_Printf>:
 8003720:	e92d 4ff0 	stmdb	sp!, {r4, r5, r6, r7, r8, r9, sl, fp, lr}
 8003724:	b0db      	sub	sp, #364	; 0x16c
 8003726:	ac67      	add	r4, sp, #412	; 0x19c
 8003728:	900b      	str	r0, [sp, #44]	; 0x2c
 800372a:	4689      	mov	r9, r1
 800372c:	4690      	mov	r8, r2
 800372e:	a81a      	add	r0, sp, #104	; 0x68
 8003730:	4622      	mov	r2, r4
 8003732:	9966      	ldr	r1, [sp, #408]	; 0x198
 8003734:	940f      	str	r4, [sp, #60]	; 0x3c
 8003736:	469a      	mov	sl, r3
 8003738:	f8dd b190 	ldr.w	fp, [sp, #400]	; 0x190
 800373c:	9c65      	ldr	r4, [sp, #404]	; 0x194
 800373e:	f007 fb75 	bl	800ae2c <vsprintf>
 8003742:	f89d 5068 	ldrb.w	r5, [sp, #104]	; 0x68
 8003746:	2d00      	cmp	r5, #0
 8003748:	f000 80b5 	beq.w	80038b6 <Lcd_Printf+0x196>
 800374c:	f1bb 0301 	subs.w	r3, fp, #1
 8003750:	f1d3 0c00 	rsbs	ip, r3, #0
 8003754:	eb5c 0c03 	adcs.w	ip, ip, r3
 8003758:	1e62      	subs	r2, r4, #1
 800375a:	4257      	negs	r7, r2
 800375c:	4157      	adcs	r7, r2
 800375e:	1ea1      	subs	r1, r4, #2
 8003760:	4248      	negs	r0, r1
 8003762:	4148      	adcs	r0, r1
 8003764:	f1bb 0602 	subs.w	r6, fp, #2
 8003768:	4274      	negs	r4, r6
 800376a:	ab1a      	add	r3, sp, #104	; 0x68
 800376c:	4174      	adcs	r4, r6
 800376e:	fa1f fa8a 	uxth.w	sl, sl
 8003772:	930c      	str	r3, [sp, #48]	; 0x30
 8003774:	f640 53f0 	movw	r3, #3568	; 0xdf0
 8003778:	fa1f f989 	uxth.w	r9, r9
 800377c:	ea0c 0200 	and.w	r2, ip, r0
 8003780:	f8cd a00c 	str.w	sl, [sp, #12]
 8003784:	4020      	ands	r0, r4
 8003786:	ea0c 0a07 	and.w	sl, ip, r7
 800378a:	ea4f 0bcb 	mov.w	fp, fp, lsl #3
 800378e:	4027      	ands	r7, r4
 8003790:	f6c0 0301 	movt	r3, #2049	; 0x801
 8003794:	f8cd 9024 	str.w	r9, [sp, #36]	; 0x24
 8003798:	9702      	str	r7, [sp, #8]
 800379a:	ae10      	add	r6, sp, #64	; 0x40
 800379c:	fa1f f988 	uxth.w	r9, r8
 80037a0:	9206      	str	r2, [sp, #24]
 80037a2:	9008      	str	r0, [sp, #32]
 80037a4:	f8cd b034 	str.w	fp, [sp, #52]	; 0x34
 80037a8:	930a      	str	r3, [sp, #40]	; 0x28
 80037aa:	4657      	mov	r7, sl
 80037ac:	9a0a      	ldr	r2, [sp, #40]	; 0x28
 80037ae:	4633      	mov	r3, r6
 80037b0:	6810      	ldr	r0, [r2, #0]
 80037b2:	6851      	ldr	r1, [r2, #4]
 80037b4:	eb02 1505 	add.w	r5, r2, r5, lsl #4
 80037b8:	c303      	stmia	r3!, {r0, r1}
 80037ba:	f855 0f08 	ldr.w	r0, [r5, #8]!
 80037be:	ac12      	add	r4, sp, #72	; 0x48
 80037c0:	6869      	ldr	r1, [r5, #4]
 80037c2:	68aa      	ldr	r2, [r5, #8]
 80037c4:	68eb      	ldr	r3, [r5, #12]
 80037c6:	f8dd a024 	ldr.w	sl, [sp, #36]	; 0x24
 80037ca:	c40f      	stmia	r4!, {r0, r1, r2, r3}
 80037cc:	69eb      	ldr	r3, [r5, #28]
 80037ce:	6928      	ldr	r0, [r5, #16]
 80037d0:	6969      	ldr	r1, [r5, #20]
 80037d2:	69aa      	ldr	r2, [r5, #24]
 80037d4:	2500      	movs	r5, #0
 80037d6:	c40f      	stmia	r4!, {r0, r1, r2, r3}
 80037d8:	9b0b      	ldr	r3, [sp, #44]	; 0x2c
 80037da:	9504      	str	r5, [sp, #16]
 80037dc:	b29b      	uxth	r3, r3
 80037de:	9305      	str	r3, [sp, #20]
 80037e0:	f8dd 8024 	ldr.w	r8, [sp, #36]	; 0x24
 80037e4:	f10a 0301 	add.w	r3, sl, #1
 80037e8:	44a8      	add	r8, r5
 80037ea:	b29b      	uxth	r3, r3
 80037ec:	fa1f f888 	uxth.w	r8, r8
 80037f0:	f8dd b014 	ldr.w	fp, [sp, #20]
 80037f4:	9307      	str	r3, [sp, #28]
 80037f6:	aa12      	add	r2, sp, #72	; 0x48
 80037f8:	4643      	mov	r3, r8
 80037fa:	5d55      	ldrb	r5, [r2, r5]
 80037fc:	46d8      	mov	r8, fp
 80037fe:	2400      	movs	r4, #0
 8003800:	469b      	mov	fp, r3
 8003802:	e013      	b.n	800382c <Lcd_Printf+0x10c>
 8003804:	2f00      	cmp	r7, #0
 8003806:	d161      	bne.n	80038cc <Lcd_Printf+0x1ac>
 8003808:	9a02      	ldr	r2, [sp, #8]
 800380a:	2a00      	cmp	r2, #0
 800380c:	d166      	bne.n	80038dc <Lcd_Printf+0x1bc>
 800380e:	9b06      	ldr	r3, [sp, #24]
 8003810:	2b00      	cmp	r3, #0
 8003812:	f040 8088 	bne.w	8003926 <Lcd_Printf+0x206>
 8003816:	9a08      	ldr	r2, [sp, #32]
 8003818:	2a00      	cmp	r2, #0
 800381a:	f040 8098 	bne.w	800394e <Lcd_Printf+0x22e>
 800381e:	3401      	adds	r4, #1
 8003820:	f108 0302 	add.w	r3, r8, #2
 8003824:	2c08      	cmp	r4, #8
 8003826:	fa1f f883 	uxth.w	r8, r3
 800382a:	d030      	beq.n	800388e <Lcd_Printf+0x16e>
 800382c:	5d32      	ldrb	r2, [r6, r4]
 800382e:	4215      	tst	r5, r2
 8003830:	d1e8      	bne.n	8003804 <Lcd_Printf+0xe4>
 8003832:	2f00      	cmp	r7, #0
 8003834:	d142      	bne.n	80038bc <Lcd_Printf+0x19c>
 8003836:	9b02      	ldr	r3, [sp, #8]
 8003838:	2b00      	cmp	r3, #0
 800383a:	d15c      	bne.n	80038f6 <Lcd_Printf+0x1d6>
 800383c:	9a06      	ldr	r2, [sp, #24]
 800383e:	2a00      	cmp	r2, #0
 8003840:	d166      	bne.n	8003910 <Lcd_Printf+0x1f0>
 8003842:	9b08      	ldr	r3, [sp, #32]
 8003844:	2b00      	cmp	r3, #0
 8003846:	d0ea      	beq.n	800381e <Lcd_Printf+0xfe>
 8003848:	4640      	mov	r0, r8
 800384a:	9907      	ldr	r1, [sp, #28]
 800384c:	9a03      	ldr	r2, [sp, #12]
 800384e:	f003 f8c1 	bl	80069d4 <Lcd_Put_Pixel>
 8003852:	f108 0c01 	add.w	ip, r8, #1
 8003856:	fa1f fc8c 	uxth.w	ip, ip
 800385a:	4660      	mov	r0, ip
 800385c:	4651      	mov	r1, sl
 800385e:	9a03      	ldr	r2, [sp, #12]
 8003860:	f8cd c004 	str.w	ip, [sp, #4]
 8003864:	f003 f8b6 	bl	80069d4 <Lcd_Put_Pixel>
 8003868:	9a03      	ldr	r2, [sp, #12]
 800386a:	4640      	mov	r0, r8
 800386c:	4651      	mov	r1, sl
 800386e:	f003 f8b1 	bl	80069d4 <Lcd_Put_Pixel>
 8003872:	f8dd c004 	ldr.w	ip, [sp, #4]
 8003876:	9907      	ldr	r1, [sp, #28]
 8003878:	4660      	mov	r0, ip
 800387a:	9a03      	ldr	r2, [sp, #12]
 800387c:	3401      	adds	r4, #1
 800387e:	f003 f8a9 	bl	80069d4 <Lcd_Put_Pixel>
 8003882:	f108 0302 	add.w	r3, r8, #2
 8003886:	2c08      	cmp	r4, #8
 8003888:	fa1f f883 	uxth.w	r8, r3
 800388c:	d1ce      	bne.n	800382c <Lcd_Printf+0x10c>
 800388e:	9d04      	ldr	r5, [sp, #16]
 8003890:	f10a 0a02 	add.w	sl, sl, #2
 8003894:	3501      	adds	r5, #1
 8003896:	2d10      	cmp	r5, #16
 8003898:	9504      	str	r5, [sp, #16]
 800389a:	fa1f fa8a 	uxth.w	sl, sl
 800389e:	d19f      	bne.n	80037e0 <Lcd_Printf+0xc0>
 80038a0:	9b0c      	ldr	r3, [sp, #48]	; 0x30
 80038a2:	9a0b      	ldr	r2, [sp, #44]	; 0x2c
 80038a4:	f813 5f01 	ldrb.w	r5, [r3, #1]!
 80038a8:	930c      	str	r3, [sp, #48]	; 0x30
 80038aa:	9b0d      	ldr	r3, [sp, #52]	; 0x34
 80038ac:	441a      	add	r2, r3
 80038ae:	920b      	str	r2, [sp, #44]	; 0x2c
 80038b0:	2d00      	cmp	r5, #0
 80038b2:	f47f af7b 	bne.w	80037ac <Lcd_Printf+0x8c>
 80038b6:	b05b      	add	sp, #364	; 0x16c
 80038b8:	e8bd 8ff0 	ldmia.w	sp!, {r4, r5, r6, r7, r8, r9, sl, fp, pc}
 80038bc:	9805      	ldr	r0, [sp, #20]
 80038be:	4659      	mov	r1, fp
 80038c0:	4420      	add	r0, r4
 80038c2:	b280      	uxth	r0, r0
 80038c4:	9a03      	ldr	r2, [sp, #12]
 80038c6:	f003 f885 	bl	80069d4 <Lcd_Put_Pixel>
 80038ca:	e7a8      	b.n	800381e <Lcd_Printf+0xfe>
 80038cc:	9805      	ldr	r0, [sp, #20]
 80038ce:	4659      	mov	r1, fp
 80038d0:	4420      	add	r0, r4
 80038d2:	b280      	uxth	r0, r0
 80038d4:	464a      	mov	r2, r9
 80038d6:	f003 f87d 	bl	80069d4 <Lcd_Put_Pixel>
 80038da:	e7a0      	b.n	800381e <Lcd_Printf+0xfe>
 80038dc:	4640      	mov	r0, r8
 80038de:	4659      	mov	r1, fp
 80038e0:	464a      	mov	r2, r9
 80038e2:	f003 f877 	bl	80069d4 <Lcd_Put_Pixel>
 80038e6:	f108 0001 	add.w	r0, r8, #1
 80038ea:	b280      	uxth	r0, r0
 80038ec:	4659      	mov	r1, fp
 80038ee:	464a      	mov	r2, r9
 80038f0:	f003 f870 	bl	80069d4 <Lcd_Put_Pixel>
 80038f4:	e793      	b.n	800381e <Lcd_Printf+0xfe>
 80038f6:	4640      	mov	r0, r8
 80038f8:	4659      	mov	r1, fp
 80038fa:	9a03      	ldr	r2, [sp, #12]
 80038fc:	f003 f86a 	bl	80069d4 <Lcd_Put_Pixel>
 8003900:	f108 0001 	add.w	r0, r8, #1
 8003904:	b280      	uxth	r0, r0
 8003906:	4659      	mov	r1, fp
 8003908:	9a03      	ldr	r2, [sp, #12]
 800390a:	f003 f863 	bl	80069d4 <Lcd_Put_Pixel>
 800390e:	e786      	b.n	800381e <Lcd_Printf+0xfe>
 8003910:	f8dd c014 	ldr.w	ip, [sp, #20]
 8003914:	4651      	mov	r1, sl
 8003916:	44a4      	add	ip, r4
 8003918:	fa1f fc8c 	uxth.w	ip, ip
 800391c:	4660      	mov	r0, ip
 800391e:	9a03      	ldr	r2, [sp, #12]
 8003920:	f8cd c004 	str.w	ip, [sp, #4]
 8003924:	e7a3      	b.n	800386e <Lcd_Printf+0x14e>
 8003926:	f8dd c014 	ldr.w	ip, [sp, #20]
 800392a:	4651      	mov	r1, sl
 800392c:	44a4      	add	ip, r4
 800392e:	fa1f fc8c 	uxth.w	ip, ip
 8003932:	4660      	mov	r0, ip
 8003934:	464a      	mov	r2, r9
 8003936:	f8cd c004 	str.w	ip, [sp, #4]
 800393a:	f003 f84b 	bl	80069d4 <Lcd_Put_Pixel>
 800393e:	f8dd c004 	ldr.w	ip, [sp, #4]
 8003942:	9907      	ldr	r1, [sp, #28]
 8003944:	4660      	mov	r0, ip
 8003946:	464a      	mov	r2, r9
 8003948:	f003 f844 	bl	80069d4 <Lcd_Put_Pixel>
 800394c:	e767      	b.n	800381e <Lcd_Printf+0xfe>
 800394e:	4640      	mov	r0, r8
 8003950:	9907      	ldr	r1, [sp, #28]
 8003952:	464a      	mov	r2, r9
 8003954:	f003 f83e 	bl	80069d4 <Lcd_Put_Pixel>
 8003958:	f108 0c01 	add.w	ip, r8, #1
 800395c:	fa1f fc8c 	uxth.w	ip, ip
 8003960:	4660      	mov	r0, ip
 8003962:	4651      	mov	r1, sl
 8003964:	464a      	mov	r2, r9
 8003966:	f8cd c004 	str.w	ip, [sp, #4]
 800396a:	f003 f833 	bl	80069d4 <Lcd_Put_Pixel>
 800396e:	4640      	mov	r0, r8
 8003970:	4651      	mov	r1, sl
 8003972:	464a      	mov	r2, r9
 8003974:	e7e1      	b.n	800393a <Lcd_Printf+0x21a>
 8003976:	bf00      	nop

08003978 <Jog_Poll_Init>:
 8003978:	f44f 5380 	mov.w	r3, #4096	; 0x1000
 800397c:	f2c4 0302 	movt	r3, #16386	; 0x4002
 8003980:	6999      	ldr	r1, [r3, #24]
 8003982:	2200      	movs	r2, #0
 8003984:	f041 0101 	orr.w	r1, r1, #1
 8003988:	6199      	str	r1, [r3, #24]
 800398a:	6999      	ldr	r1, [r3, #24]
 800398c:	f2c4 0201 	movt	r2, #16385	; 0x4001
 8003990:	f041 010c 	orr.w	r1, r1, #12
 8003994:	6199      	str	r1, [r3, #24]
 8003996:	6851      	ldr	r1, [r2, #4]
 8003998:	f44f 6340 	mov.w	r3, #3072	; 0xc00
 800399c:	f021 61e0 	bic.w	r1, r1, #117440512	; 0x7000000
 80039a0:	f041 6180 	orr.w	r1, r1, #67108864	; 0x4000000
 80039a4:	6051      	str	r1, [r2, #4]
 80039a6:	f2c4 0301 	movt	r3, #16385	; 0x4001
 80039aa:	6819      	ldr	r1, [r3, #0]
 80039ac:	f44f 6200 	mov.w	r2, #2048	; 0x800
 80039b0:	f421 4170 	bic.w	r1, r1, #61440	; 0xf000
 80039b4:	f441 4100 	orr.w	r1, r1, #32768	; 0x8000
 80039b8:	6019      	str	r1, [r3, #0]
 80039ba:	68d9      	ldr	r1, [r3, #12]
 80039bc:	f2c4 0201 	movt	r2, #16385	; 0x4001
 80039c0:	f041 0108 	orr.w	r1, r1, #8
 80039c4:	60d9      	str	r1, [r3, #12]
 80039c6:	6819      	ldr	r1, [r3, #0]
 80039c8:	f3c1 0113 	ubfx	r1, r1, #0, #20
 80039cc:	f041 4108 	orr.w	r1, r1, #2281701376	; 0x88000000
 80039d0:	f441 0100 	orr.w	r1, r1, #8388608	; 0x800000
 80039d4:	6019      	str	r1, [r3, #0]
 80039d6:	68d9      	ldr	r1, [r3, #12]
 80039d8:	f041 01e0 	orr.w	r1, r1, #224	; 0xe0
 80039dc:	60d9      	str	r1, [r3, #12]
 80039de:	6853      	ldr	r3, [r2, #4]
 80039e0:	f023 637f 	bic.w	r3, r3, #267386880	; 0xff00000
 80039e4:	f043 6308 	orr.w	r3, r3, #142606336	; 0x8800000
 80039e8:	6053      	str	r3, [r2, #4]
 80039ea:	68d3      	ldr	r3, [r2, #12]
 80039ec:	f443 43c0 	orr.w	r3, r3, #24576	; 0x6000
 80039f0:	60d3      	str	r3, [r2, #12]
 80039f2:	4770      	bx	lr

080039f4 <Jog_Get_Pressed_Calm>:
 80039f4:	b470      	push	{r4, r5, r6}
 80039f6:	f44f 6240 	mov.w	r2, #3072	; 0xc00
 80039fa:	f44f 6600 	mov.w	r6, #2048	; 0x800
 80039fe:	f2c4 0201 	movt	r2, #16385	; 0x4001
 8003a02:	f2c4 0601 	movt	r6, #16385	; 0x4001
 8003a06:	6893      	ldr	r3, [r2, #8]
 8003a08:	6890      	ldr	r0, [r2, #8]
 8003a0a:	68b1      	ldr	r1, [r6, #8]
 8003a0c:	43c0      	mvns	r0, r0
 8003a0e:	43c9      	mvns	r1, r1
 8003a10:	f3c1 3141 	ubfx	r1, r1, #13, #2
 8003a14:	f083 0308 	eor.w	r3, r3, #8
 8003a18:	f3c0 1042 	ubfx	r0, r0, #5, #3
 8003a1c:	0109      	lsls	r1, r1, #4
 8003a1e:	f3c3 03c0 	ubfx	r3, r3, #3, #1
 8003a22:	ea41 0040 	orr.w	r0, r1, r0, lsl #1
 8003a26:	4318      	orrs	r0, r3
 8003a28:	f242 7310 	movw	r3, #10000	; 0x2710
 8003a2c:	6894      	ldr	r4, [r2, #8]
 8003a2e:	6891      	ldr	r1, [r2, #8]
 8003a30:	68b5      	ldr	r5, [r6, #8]
 8003a32:	43c9      	mvns	r1, r1
 8003a34:	43ed      	mvns	r5, r5
 8003a36:	f3c5 3541 	ubfx	r5, r5, #13, #2
 8003a3a:	f084 0408 	eor.w	r4, r4, #8
 8003a3e:	f3c1 1142 	ubfx	r1, r1, #5, #3
 8003a42:	012d      	lsls	r5, r5, #4
 8003a44:	f3c4 04c0 	ubfx	r4, r4, #3, #1
 8003a48:	ea45 0141 	orr.w	r1, r5, r1, lsl #1
 8003a4c:	4321      	orrs	r1, r4
 8003a4e:	4288      	cmp	r0, r1
 8003a50:	d1d9      	bne.n	8003a06 <Jog_Get_Pressed_Calm+0x12>
 8003a52:	3b01      	subs	r3, #1
 8003a54:	d1ea      	bne.n	8003a2c <Jog_Get_Pressed_Calm+0x38>
 8003a56:	bc70      	pop	{r4, r5, r6}
 8003a58:	4770      	bx	lr
 8003a5a:	bf00      	nop

08003a5c <Jog_Get_Pressed>:
 8003a5c:	f44f 6340 	mov.w	r3, #3072	; 0xc00
 8003a60:	f44f 6200 	mov.w	r2, #2048	; 0x800
 8003a64:	f2c4 0301 	movt	r3, #16385	; 0x4001
 8003a68:	f2c4 0201 	movt	r2, #16385	; 0x4001
 8003a6c:	6899      	ldr	r1, [r3, #8]
 8003a6e:	6898      	ldr	r0, [r3, #8]
 8003a70:	6892      	ldr	r2, [r2, #8]
 8003a72:	43c0      	mvns	r0, r0
 8003a74:	43d2      	mvns	r2, r2
 8003a76:	f3c2 3241 	ubfx	r2, r2, #13, #2
 8003a7a:	f081 0308 	eor.w	r3, r1, #8
 8003a7e:	0112      	lsls	r2, r2, #4
 8003a80:	f3c0 1042 	ubfx	r0, r0, #5, #3
 8003a84:	f3c3 03c0 	ubfx	r3, r3, #3, #1
 8003a88:	ea42 0040 	orr.w	r0, r2, r0, lsl #1
 8003a8c:	4318      	orrs	r0, r3
 8003a8e:	4770      	bx	lr

08003a90 <Jog_Wait_Key_Pressed>:
 8003a90:	b410      	push	{r4}
 8003a92:	f44f 6240 	mov.w	r2, #3072	; 0xc00
 8003a96:	f44f 6400 	mov.w	r4, #2048	; 0x800
 8003a9a:	f2c4 0201 	movt	r2, #16385	; 0x4001
 8003a9e:	f2c4 0401 	movt	r4, #16385	; 0x4001
 8003aa2:	6893      	ldr	r3, [r2, #8]
 8003aa4:	6890      	ldr	r0, [r2, #8]
 8003aa6:	68a1      	ldr	r1, [r4, #8]
 8003aa8:	43c0      	mvns	r0, r0
 8003aaa:	43c9      	mvns	r1, r1
 8003aac:	f3c1 3141 	ubfx	r1, r1, #13, #2
 8003ab0:	f083 0308 	eor.w	r3, r3, #8
 8003ab4:	f3c0 1042 	ubfx	r0, r0, #5, #3
 8003ab8:	0109      	lsls	r1, r1, #4
 8003aba:	f3c3 03c0 	ubfx	r3, r3, #3, #1
 8003abe:	ea41 0040 	orr.w	r0, r1, r0, lsl #1
 8003ac2:	4318      	orrs	r0, r3
 8003ac4:	d0ed      	beq.n	8003aa2 <Jog_Wait_Key_Pressed+0x12>
 8003ac6:	f85d 4b04 	ldr.w	r4, [sp], #4
 8003aca:	4770      	bx	lr

08003acc <Jog_Wait_Key_Released>:
 8003acc:	b410      	push	{r4}
 8003ace:	f44f 6340 	mov.w	r3, #3072	; 0xc00
 8003ad2:	f44f 6400 	mov.w	r4, #2048	; 0x800
 8003ad6:	f2c4 0301 	movt	r3, #16385	; 0x4001
 8003ada:	f2c4 0401 	movt	r4, #16385	; 0x4001
 8003ade:	689a      	ldr	r2, [r3, #8]
 8003ae0:	6898      	ldr	r0, [r3, #8]
 8003ae2:	68a1      	ldr	r1, [r4, #8]
 8003ae4:	43c0      	mvns	r0, r0
 8003ae6:	43c9      	mvns	r1, r1
 8003ae8:	f3c1 3141 	ubfx	r1, r1, #13, #2
 8003aec:	f082 0208 	eor.w	r2, r2, #8
 8003af0:	f3c0 1042 	ubfx	r0, r0, #5, #3
 8003af4:	0109      	lsls	r1, r1, #4
 8003af6:	f3c2 02c0 	ubfx	r2, r2, #3, #1
 8003afa:	ea41 0140 	orr.w	r1, r1, r0, lsl #1
 8003afe:	430a      	orrs	r2, r1
 8003b00:	d1ed      	bne.n	8003ade <Jog_Wait_Key_Released+0x12>
 8003b02:	f85d 4b04 	ldr.w	r4, [sp], #4
 8003b06:	4770      	bx	lr

08003b08 <Jog_ISR_Enable>:
 8003b08:	b470      	push	{r4, r5, r6}
 8003b0a:	b9f0      	cbnz	r0, 8003b4a <Jog_ISR_Enable+0x42>
 8003b0c:	f44f 4261 	mov.w	r2, #57600	; 0xe100
 8003b10:	f2ce 0200 	movt	r2, #57344	; 0xe000
 8003b14:	f44f 7400 	mov.w	r4, #512	; 0x200
 8003b18:	f44f 0000 	mov.w	r0, #8388608	; 0x800000
 8003b1c:	f44f 7180 	mov.w	r1, #256	; 0x100
 8003b20:	f44f 5380 	mov.w	r3, #4096	; 0x1000
 8003b24:	6014      	str	r4, [r2, #0]
 8003b26:	f2c4 0302 	movt	r3, #16386	; 0x4002
 8003b2a:	6010      	str	r0, [r2, #0]
 8003b2c:	6051      	str	r1, [r2, #4]
 8003b2e:	699a      	ldr	r2, [r3, #24]
 8003b30:	f022 0208 	bic.w	r2, r2, #8
 8003b34:	619a      	str	r2, [r3, #24]
 8003b36:	699a      	ldr	r2, [r3, #24]
 8003b38:	f022 0204 	bic.w	r2, r2, #4
 8003b3c:	619a      	str	r2, [r3, #24]
 8003b3e:	699a      	ldr	r2, [r3, #24]
 8003b40:	f022 0201 	bic.w	r2, r2, #1
 8003b44:	619a      	str	r2, [r3, #24]
 8003b46:	bc70      	pop	{r4, r5, r6}
 8003b48:	4770      	bx	lr
 8003b4a:	f44f 5280 	mov.w	r2, #4096	; 0x1000
 8003b4e:	f2c4 0202 	movt	r2, #16386	; 0x4002
 8003b52:	6993      	ldr	r3, [r2, #24]
 8003b54:	2100      	movs	r1, #0
 8003b56:	f043 0308 	orr.w	r3, r3, #8
 8003b5a:	6193      	str	r3, [r2, #24]
 8003b5c:	6993      	ldr	r3, [r2, #24]
 8003b5e:	f2c4 0101 	movt	r1, #16385	; 0x4001
 8003b62:	f043 0304 	orr.w	r3, r3, #4
 8003b66:	6193      	str	r3, [r2, #24]
 8003b68:	6990      	ldr	r0, [r2, #24]
 8003b6a:	f44f 6380 	mov.w	r3, #1024	; 0x400
 8003b6e:	f040 0001 	orr.w	r0, r0, #1
 8003b72:	6190      	str	r0, [r2, #24]
 8003b74:	688a      	ldr	r2, [r1, #8]
 8003b76:	f2c4 0301 	movt	r3, #16385	; 0x4001
 8003b7a:	f422 4270 	bic.w	r2, r2, #61440	; 0xf000
 8003b7e:	f442 5280 	orr.w	r2, r2, #4096	; 0x1000
 8003b82:	608a      	str	r2, [r1, #8]
 8003b84:	68c8      	ldr	r0, [r1, #12]
 8003b86:	f44f 4261 	mov.w	r2, #57600	; 0xe100
 8003b8a:	f420 407f 	bic.w	r0, r0, #65280	; 0xff00
 8003b8e:	f020 00f0 	bic.w	r0, r0, #240	; 0xf0
 8003b92:	f440 5088 	orr.w	r0, r0, #4352	; 0x1100
 8003b96:	f040 0010 	orr.w	r0, r0, #16
 8003b9a:	60c8      	str	r0, [r1, #12]
 8003b9c:	6948      	ldr	r0, [r1, #20]
 8003b9e:	f2ce 0200 	movt	r2, #57344	; 0xe000
 8003ba2:	f420 607f 	bic.w	r0, r0, #4080	; 0xff0
 8003ba6:	6148      	str	r0, [r1, #20]
 8003ba8:	68d9      	ldr	r1, [r3, #12]
 8003baa:	f44f 7400 	mov.w	r4, #512	; 0x200
 8003bae:	f441 41c0 	orr.w	r1, r1, #24576	; 0x6000
 8003bb2:	60d9      	str	r1, [r3, #12]
 8003bb4:	68d9      	ldr	r1, [r3, #12]
 8003bb6:	f246 05e8 	movw	r5, #24808	; 0x60e8
 8003bba:	f041 01e0 	orr.w	r1, r1, #224	; 0xe0
 8003bbe:	60d9      	str	r1, [r3, #12]
 8003bc0:	68de      	ldr	r6, [r3, #12]
 8003bc2:	f44f 0000 	mov.w	r0, #8388608	; 0x800000
 8003bc6:	f046 0608 	orr.w	r6, r6, #8
 8003bca:	f44f 7180 	mov.w	r1, #256	; 0x100
 8003bce:	60de      	str	r6, [r3, #12]
 8003bd0:	615d      	str	r5, [r3, #20]
 8003bd2:	f8c2 4180 	str.w	r4, [r2, #384]	; 0x180
 8003bd6:	f8c2 0180 	str.w	r0, [r2, #384]	; 0x180
 8003bda:	f8c2 1184 	str.w	r1, [r2, #388]	; 0x184
 8003bde:	681d      	ldr	r5, [r3, #0]
 8003be0:	f045 05e0 	orr.w	r5, r5, #224	; 0xe0
 8003be4:	601d      	str	r5, [r3, #0]
 8003be6:	681d      	ldr	r5, [r3, #0]
 8003be8:	f445 45c0 	orr.w	r5, r5, #24576	; 0x6000
 8003bec:	601d      	str	r5, [r3, #0]
 8003bee:	681d      	ldr	r5, [r3, #0]
 8003bf0:	f045 0508 	orr.w	r5, r5, #8
 8003bf4:	601d      	str	r5, [r3, #0]
 8003bf6:	6014      	str	r4, [r2, #0]
 8003bf8:	6010      	str	r0, [r2, #0]
 8003bfa:	6051      	str	r1, [r2, #4]
 8003bfc:	bc70      	pop	{r4, r5, r6}
 8003bfe:	4770      	bx	lr

08003c00 <Key_Poll_Init>:
 8003c00:	f44f 5280 	mov.w	r2, #4096	; 0x1000
 8003c04:	f2c4 0202 	movt	r2, #16386	; 0x4002
 8003c08:	6991      	ldr	r1, [r2, #24]
 8003c0a:	f44f 6340 	mov.w	r3, #3072	; 0xc00
 8003c0e:	f041 0108 	orr.w	r1, r1, #8
 8003c12:	6191      	str	r1, [r2, #24]
 8003c14:	f2c4 0301 	movt	r3, #16385	; 0x4001
 8003c18:	681a      	ldr	r2, [r3, #0]
 8003c1a:	f022 427f 	bic.w	r2, r2, #4278190080	; 0xff000000
 8003c1e:	f042 4288 	orr.w	r2, r2, #1140850688	; 0x44000000
 8003c22:	601a      	str	r2, [r3, #0]
 8003c24:	4770      	bx	lr
 8003c26:	bf00      	nop

08003c28 <Key_Get_Pressed>:
 8003c28:	f44f 6340 	mov.w	r3, #3072	; 0xc00
 8003c2c:	f2c4 0301 	movt	r3, #16385	; 0x4001
 8003c30:	6898      	ldr	r0, [r3, #8]
 8003c32:	43c0      	mvns	r0, r0
 8003c34:	f3c0 1081 	ubfx	r0, r0, #6, #2
 8003c38:	4770      	bx	lr
 8003c3a:	bf00      	nop

08003c3c <Key_Wait_Key_Released>:
 8003c3c:	f44f 6240 	mov.w	r2, #3072	; 0xc00
 8003c40:	f2c4 0201 	movt	r2, #16385	; 0x4001
 8003c44:	6893      	ldr	r3, [r2, #8]
 8003c46:	43db      	mvns	r3, r3
 8003c48:	f013 0fc0 	tst.w	r3, #192	; 0xc0
 8003c4c:	d1fa      	bne.n	8003c44 <Key_Wait_Key_Released+0x8>
 8003c4e:	4770      	bx	lr

08003c50 <Key_Wait_Key_Pressed>:
 8003c50:	f44f 6340 	mov.w	r3, #3072	; 0xc00
 8003c54:	f2c4 0301 	movt	r3, #16385	; 0x4001
 8003c58:	6898      	ldr	r0, [r3, #8]
 8003c5a:	43c0      	mvns	r0, r0
 8003c5c:	f3c0 1081 	ubfx	r0, r0, #6, #2
 8003c60:	2800      	cmp	r0, #0
 8003c62:	d0f9      	beq.n	8003c58 <Key_Wait_Key_Pressed+0x8>
 8003c64:	4770      	bx	lr
 8003c66:	bf00      	nop

08003c68 <Key_ISR_Enable>:
 8003c68:	b410      	push	{r4}
 8003c6a:	b950      	cbnz	r0, 8003c82 <Key_ISR_Enable+0x1a>
 8003c6c:	f44f 4361 	mov.w	r3, #57600	; 0xe100
 8003c70:	f2ce 0300 	movt	r3, #57344	; 0xe000
 8003c74:	f44f 0200 	mov.w	r2, #8388608	; 0x800000
 8003c78:	f8c3 2080 	str.w	r2, [r3, #128]	; 0x80
 8003c7c:	f85d 4b04 	ldr.w	r4, [sp], #4
 8003c80:	4770      	bx	lr
 8003c82:	f44f 5380 	mov.w	r3, #4096	; 0x1000
 8003c86:	f2c4 0302 	movt	r3, #16386	; 0x4002
 8003c8a:	699a      	ldr	r2, [r3, #24]
 8003c8c:	f44f 6140 	mov.w	r1, #3072	; 0xc00
 8003c90:	f042 0208 	orr.w	r2, r2, #8
 8003c94:	619a      	str	r2, [r3, #24]
 8003c96:	699a      	ldr	r2, [r3, #24]
 8003c98:	f2c4 0101 	movt	r1, #16385	; 0x4001
 8003c9c:	f042 0201 	orr.w	r2, r2, #1
 8003ca0:	619a      	str	r2, [r3, #24]
 8003ca2:	680b      	ldr	r3, [r1, #0]
 8003ca4:	2200      	movs	r2, #0
 8003ca6:	f023 437f 	bic.w	r3, r3, #4278190080	; 0xff000000
 8003caa:	f043 4388 	orr.w	r3, r3, #1140850688	; 0x44000000
 8003cae:	600b      	str	r3, [r1, #0]
 8003cb0:	f2c4 0201 	movt	r2, #16385	; 0x4001
 8003cb4:	68d1      	ldr	r1, [r2, #12]
 8003cb6:	f44f 6380 	mov.w	r3, #1024	; 0x400
 8003cba:	f421 417f 	bic.w	r1, r1, #65280	; 0xff00
 8003cbe:	f441 5188 	orr.w	r1, r1, #4352	; 0x1100
 8003cc2:	60d1      	str	r1, [r2, #12]
 8003cc4:	f2c4 0301 	movt	r3, #16385	; 0x4001
 8003cc8:	68d9      	ldr	r1, [r3, #12]
 8003cca:	20c0      	movs	r0, #192	; 0xc0
 8003ccc:	f041 01c0 	orr.w	r1, r1, #192	; 0xc0
 8003cd0:	60d9      	str	r1, [r3, #12]
 8003cd2:	681c      	ldr	r4, [r3, #0]
 8003cd4:	f44f 4261 	mov.w	r2, #57600	; 0xe100
 8003cd8:	4304      	orrs	r4, r0
 8003cda:	f2ce 0200 	movt	r2, #57344	; 0xe000
 8003cde:	f44f 0100 	mov.w	r1, #8388608	; 0x800000
 8003ce2:	601c      	str	r4, [r3, #0]
 8003ce4:	6158      	str	r0, [r3, #20]
 8003ce6:	f8c2 1180 	str.w	r1, [r2, #384]	; 0x180
 8003cea:	6011      	str	r1, [r2, #0]
 8003cec:	f85d 4b04 	ldr.w	r4, [sp], #4
 8003cf0:	4770      	bx	lr
 8003cf2:	bf00      	nop

08003cf4 <Lcd_GPIO_Init>:
 8003cf4:	f44f 6200 	mov.w	r2, #2048	; 0x800
 8003cf8:	f2c4 0201 	movt	r2, #16385	; 0x4001
 8003cfc:	6811      	ldr	r1, [r2, #0]
 8003cfe:	f44f 6340 	mov.w	r3, #3072	; 0xc00
 8003d02:	f421 2170 	bic.w	r1, r1, #983040	; 0xf0000
 8003d06:	f441 3140 	orr.w	r1, r1, #196608	; 0x30000
 8003d0a:	6011      	str	r1, [r2, #0]
 8003d0c:	6851      	ldr	r1, [r2, #4]
 8003d0e:	f2c4 0301 	movt	r3, #16385	; 0x4001
 8003d12:	f421 4170 	bic.w	r1, r1, #61440	; 0xf000
 8003d16:	f441 5140 	orr.w	r1, r1, #12288	; 0x3000
 8003d1a:	6051      	str	r1, [r2, #4]
 8003d1c:	681a      	ldr	r2, [r3, #0]
 8003d1e:	f422 2270 	bic.w	r2, r2, #983040	; 0xf0000
 8003d22:	f442 3240 	orr.w	r2, r2, #196608	; 0x30000
 8003d26:	601a      	str	r2, [r3, #0]
 8003d28:	685a      	ldr	r2, [r3, #4]
 8003d2a:	f022 02f0 	bic.w	r2, r2, #240	; 0xf0
 8003d2e:	f042 0230 	orr.w	r2, r2, #48	; 0x30
 8003d32:	605a      	str	r2, [r3, #4]
 8003d34:	4770      	bx	lr
 8003d36:	bf00      	nop

08003d38 <Lcd_Write_Reg>:
 8003d38:	b410      	push	{r4}
 8003d3a:	f44f 6300 	mov.w	r3, #2048	; 0x800
 8003d3e:	f2c4 0301 	movt	r3, #16385	; 0x4001
 8003d42:	68dc      	ldr	r4, [r3, #12]
 8003d44:	f44f 6240 	mov.w	r2, #3072	; 0xc00
 8003d48:	f024 0410 	bic.w	r4, r4, #16
 8003d4c:	60dc      	str	r4, [r3, #12]
 8003d4e:	f2c4 0201 	movt	r2, #16385	; 0x4001
 8003d52:	68d4      	ldr	r4, [r2, #12]
 8003d54:	f44f 5340 	mov.w	r3, #12288	; 0x3000
 8003d58:	f2c4 0301 	movt	r3, #16385	; 0x4001
 8003d5c:	f424 7400 	bic.w	r4, r4, #512	; 0x200
 8003d60:	60d4      	str	r4, [r2, #12]
 8003d62:	461a      	mov	r2, r3
 8003d64:	8198      	strh	r0, [r3, #12]
 8003d66:	8913      	ldrh	r3, [r2, #8]
 8003d68:	079b      	lsls	r3, r3, #30
 8003d6a:	d5fc      	bpl.n	8003d66 <Lcd_Write_Reg+0x2e>
 8003d6c:	f44f 5040 	mov.w	r0, #12288	; 0x3000
 8003d70:	f2c4 0001 	movt	r0, #16385	; 0x4001
 8003d74:	8902      	ldrh	r2, [r0, #8]
 8003d76:	f44f 5340 	mov.w	r3, #12288	; 0x3000
 8003d7a:	0614      	lsls	r4, r2, #24
 8003d7c:	f2c4 0301 	movt	r3, #16385	; 0x4001
 8003d80:	d4f8      	bmi.n	8003d74 <Lcd_Write_Reg+0x3c>
 8003d82:	f44f 6200 	mov.w	r2, #2048	; 0x800
 8003d86:	f2c4 0201 	movt	r2, #16385	; 0x4001
 8003d8a:	68d4      	ldr	r4, [r2, #12]
 8003d8c:	f44f 6040 	mov.w	r0, #3072	; 0xc00
 8003d90:	f044 0410 	orr.w	r4, r4, #16
 8003d94:	60d4      	str	r4, [r2, #12]
 8003d96:	68d4      	ldr	r4, [r2, #12]
 8003d98:	f2c4 0001 	movt	r0, #16385	; 0x4001
 8003d9c:	f024 0410 	bic.w	r4, r4, #16
 8003da0:	60d4      	str	r4, [r2, #12]
 8003da2:	68c2      	ldr	r2, [r0, #12]
 8003da4:	b2c9      	uxtb	r1, r1
 8003da6:	f442 7200 	orr.w	r2, r2, #512	; 0x200
 8003daa:	60c2      	str	r2, [r0, #12]
 8003dac:	461a      	mov	r2, r3
 8003dae:	8199      	strh	r1, [r3, #12]
 8003db0:	8913      	ldrh	r3, [r2, #8]
 8003db2:	0799      	lsls	r1, r3, #30
 8003db4:	d5fc      	bpl.n	8003db0 <Lcd_Write_Reg+0x78>
 8003db6:	f44f 5240 	mov.w	r2, #12288	; 0x3000
 8003dba:	f2c4 0201 	movt	r2, #16385	; 0x4001
 8003dbe:	8913      	ldrh	r3, [r2, #8]
 8003dc0:	061b      	lsls	r3, r3, #24
 8003dc2:	d4fc      	bmi.n	8003dbe <Lcd_Write_Reg+0x86>
 8003dc4:	f44f 6300 	mov.w	r3, #2048	; 0x800
 8003dc8:	f2c4 0301 	movt	r3, #16385	; 0x4001
 8003dcc:	68da      	ldr	r2, [r3, #12]
 8003dce:	f042 0210 	orr.w	r2, r2, #16
 8003dd2:	60da      	str	r2, [r3, #12]
 8003dd4:	f85d 4b04 	ldr.w	r4, [sp], #4
 8003dd8:	4770      	bx	lr
 8003dda:	bf00      	nop

08003ddc <Lcd_Write_Data_16Bit>:
 8003ddc:	b410      	push	{r4}
 8003dde:	f44f 6200 	mov.w	r2, #2048	; 0x800
 8003de2:	f2c4 0201 	movt	r2, #16385	; 0x4001
 8003de6:	68d1      	ldr	r1, [r2, #12]
 8003de8:	f44f 6340 	mov.w	r3, #3072	; 0xc00
 8003dec:	f021 0110 	bic.w	r1, r1, #16
 8003df0:	60d1      	str	r1, [r2, #12]
 8003df2:	f2c4 0301 	movt	r3, #16385	; 0x4001
 8003df6:	68da      	ldr	r2, [r3, #12]
 8003df8:	f44f 5140 	mov.w	r1, #12288	; 0x3000
 8003dfc:	f442 7200 	orr.w	r2, r2, #512	; 0x200
 8003e00:	f2c4 0101 	movt	r1, #16385	; 0x4001
 8003e04:	0a04      	lsrs	r4, r0, #8
 8003e06:	60da      	str	r2, [r3, #12]
 8003e08:	460a      	mov	r2, r1
 8003e0a:	818c      	strh	r4, [r1, #12]
 8003e0c:	8913      	ldrh	r3, [r2, #8]
 8003e0e:	079b      	lsls	r3, r3, #30
 8003e10:	d5fc      	bpl.n	8003e0c <Lcd_Write_Data_16Bit+0x30>
 8003e12:	f44f 5140 	mov.w	r1, #12288	; 0x3000
 8003e16:	f2c4 0101 	movt	r1, #16385	; 0x4001
 8003e1a:	890a      	ldrh	r2, [r1, #8]
 8003e1c:	f44f 5340 	mov.w	r3, #12288	; 0x3000
 8003e20:	0614      	lsls	r4, r2, #24
 8003e22:	f2c4 0301 	movt	r3, #16385	; 0x4001
 8003e26:	d4f8      	bmi.n	8003e1a <Lcd_Write_Data_16Bit+0x3e>
 8003e28:	b2c0      	uxtb	r0, r0
 8003e2a:	8198      	strh	r0, [r3, #12]
 8003e2c:	891a      	ldrh	r2, [r3, #8]
 8003e2e:	0790      	lsls	r0, r2, #30
 8003e30:	d5fc      	bpl.n	8003e2c <Lcd_Write_Data_16Bit+0x50>
 8003e32:	f44f 5240 	mov.w	r2, #12288	; 0x3000
 8003e36:	f2c4 0201 	movt	r2, #16385	; 0x4001
 8003e3a:	8913      	ldrh	r3, [r2, #8]
 8003e3c:	0619      	lsls	r1, r3, #24
 8003e3e:	d4fc      	bmi.n	8003e3a <Lcd_Write_Data_16Bit+0x5e>
 8003e40:	f44f 6300 	mov.w	r3, #2048	; 0x800
 8003e44:	f2c4 0301 	movt	r3, #16385	; 0x4001
 8003e48:	68da      	ldr	r2, [r3, #12]
 8003e4a:	f042 0210 	orr.w	r2, r2, #16
 8003e4e:	60da      	str	r2, [r3, #12]
 8003e50:	f85d 4b04 	ldr.w	r4, [sp], #4
 8003e54:	4770      	bx	lr
 8003e56:	bf00      	nop

08003e58 <Lcd_Reset>:
 8003e58:	f44f 6340 	mov.w	r3, #3072	; 0xc00
 8003e5c:	f2c4 0301 	movt	r3, #16385	; 0x4001
 8003e60:	68d9      	ldr	r1, [r3, #12]
 8003e62:	b082      	sub	sp, #8
 8003e64:	2200      	movs	r2, #0
 8003e66:	f021 0110 	bic.w	r1, r1, #16
 8003e6a:	60d9      	str	r1, [r3, #12]
 8003e6c:	9200      	str	r2, [sp, #0]
 8003e6e:	9b00      	ldr	r3, [sp, #0]
 8003e70:	f643 72ff 	movw	r2, #16383	; 0x3fff
 8003e74:	f2c0 0206 	movt	r2, #6
 8003e78:	4293      	cmp	r3, r2
 8003e7a:	dc05      	bgt.n	8003e88 <Lcd_Reset+0x30>
 8003e7c:	9b00      	ldr	r3, [sp, #0]
 8003e7e:	3301      	adds	r3, #1
 8003e80:	9300      	str	r3, [sp, #0]
 8003e82:	9b00      	ldr	r3, [sp, #0]
 8003e84:	4293      	cmp	r3, r2
 8003e86:	ddf9      	ble.n	8003e7c <Lcd_Reset+0x24>
 8003e88:	f44f 6340 	mov.w	r3, #3072	; 0xc00
 8003e8c:	f2c4 0301 	movt	r3, #16385	; 0x4001
 8003e90:	68d9      	ldr	r1, [r3, #12]
 8003e92:	2200      	movs	r2, #0
 8003e94:	f041 0110 	orr.w	r1, r1, #16
 8003e98:	60d9      	str	r1, [r3, #12]
 8003e9a:	9201      	str	r2, [sp, #4]
 8003e9c:	9b01      	ldr	r3, [sp, #4]
 8003e9e:	f641 72ff 	movw	r2, #8191	; 0x1fff
 8003ea2:	f2c0 0203 	movt	r2, #3
 8003ea6:	4293      	cmp	r3, r2
 8003ea8:	dc05      	bgt.n	8003eb6 <Lcd_Reset+0x5e>
 8003eaa:	9b01      	ldr	r3, [sp, #4]
 8003eac:	3301      	adds	r3, #1
 8003eae:	9301      	str	r3, [sp, #4]
 8003eb0:	9b01      	ldr	r3, [sp, #4]
 8003eb2:	4293      	cmp	r3, r2
 8003eb4:	ddf9      	ble.n	8003eaa <Lcd_Reset+0x52>
 8003eb6:	b002      	add	sp, #8
 8003eb8:	4770      	bx	lr
 8003eba:	bf00      	nop

08003ebc <Lcd_WR_REG>:
 8003ebc:	f44f 6300 	mov.w	r3, #2048	; 0x800
 8003ec0:	f2c4 0301 	movt	r3, #16385	; 0x4001
 8003ec4:	68d9      	ldr	r1, [r3, #12]
 8003ec6:	f44f 6240 	mov.w	r2, #3072	; 0xc00
 8003eca:	f021 0110 	bic.w	r1, r1, #16
 8003ece:	60d9      	str	r1, [r3, #12]
 8003ed0:	f2c4 0201 	movt	r2, #16385	; 0x4001
 8003ed4:	68d1      	ldr	r1, [r2, #12]
 8003ed6:	f44f 5340 	mov.w	r3, #12288	; 0x3000
 8003eda:	f2c4 0301 	movt	r3, #16385	; 0x4001
 8003ede:	f421 7100 	bic.w	r1, r1, #512	; 0x200
 8003ee2:	60d1      	str	r1, [r2, #12]
 8003ee4:	461a      	mov	r2, r3
 8003ee6:	8198      	strh	r0, [r3, #12]
 8003ee8:	8913      	ldrh	r3, [r2, #8]
 8003eea:	0798      	lsls	r0, r3, #30
 8003eec:	d5fc      	bpl.n	8003ee8 <Lcd_WR_REG+0x2c>
 8003eee:	f44f 5240 	mov.w	r2, #12288	; 0x3000
 8003ef2:	f2c4 0201 	movt	r2, #16385	; 0x4001
 8003ef6:	8913      	ldrh	r3, [r2, #8]
 8003ef8:	0619      	lsls	r1, r3, #24
 8003efa:	d4fc      	bmi.n	8003ef6 <Lcd_WR_REG+0x3a>
 8003efc:	f44f 6300 	mov.w	r3, #2048	; 0x800
 8003f00:	f2c4 0301 	movt	r3, #16385	; 0x4001
 8003f04:	68da      	ldr	r2, [r3, #12]
 8003f06:	f042 0210 	orr.w	r2, r2, #16
 8003f0a:	60da      	str	r2, [r3, #12]
 8003f0c:	4770      	bx	lr
 8003f0e:	bf00      	nop

08003f10 <Lcd_WR_DATA>:
 8003f10:	f44f 6300 	mov.w	r3, #2048	; 0x800
 8003f14:	f2c4 0301 	movt	r3, #16385	; 0x4001
 8003f18:	68d9      	ldr	r1, [r3, #12]
 8003f1a:	f44f 6240 	mov.w	r2, #3072	; 0xc00
 8003f1e:	f021 0110 	bic.w	r1, r1, #16
 8003f22:	60d9      	str	r1, [r3, #12]
 8003f24:	f2c4 0201 	movt	r2, #16385	; 0x4001
 8003f28:	68d1      	ldr	r1, [r2, #12]
 8003f2a:	f44f 5340 	mov.w	r3, #12288	; 0x3000
 8003f2e:	f2c4 0301 	movt	r3, #16385	; 0x4001
 8003f32:	f441 7100 	orr.w	r1, r1, #512	; 0x200
 8003f36:	60d1      	str	r1, [r2, #12]
 8003f38:	461a      	mov	r2, r3
 8003f3a:	8198      	strh	r0, [r3, #12]
 8003f3c:	8913      	ldrh	r3, [r2, #8]
 8003f3e:	0799      	lsls	r1, r3, #30
 8003f40:	d5fc      	bpl.n	8003f3c <Lcd_WR_DATA+0x2c>
 8003f42:	f44f 5240 	mov.w	r2, #12288	; 0x3000
 8003f46:	f2c4 0201 	movt	r2, #16385	; 0x4001
 8003f4a:	8913      	ldrh	r3, [r2, #8]
 8003f4c:	061b      	lsls	r3, r3, #24
 8003f4e:	d4fc      	bmi.n	8003f4a <Lcd_WR_DATA+0x3a>
 8003f50:	f44f 6300 	mov.w	r3, #2048	; 0x800
 8003f54:	f2c4 0301 	movt	r3, #16385	; 0x4001
 8003f58:	68da      	ldr	r2, [r3, #12]
 8003f5a:	f042 0210 	orr.w	r2, r2, #16
 8003f5e:	60da      	str	r2, [r3, #12]
 8003f60:	4770      	bx	lr
 8003f62:	bf00      	nop

08003f64 <Lcd_Set_Display_Mode>:
 8003f64:	f240 5388 	movw	r3, #1416	; 0x588
 8003f68:	b410      	push	{r4}
 8003f6a:	f2c2 0300 	movt	r3, #8192	; 0x2000
 8003f6e:	242a      	movs	r4, #42	; 0x2a
 8003f70:	212b      	movs	r1, #43	; 0x2b
 8003f72:	222c      	movs	r2, #44	; 0x2c
 8003f74:	7118      	strb	r0, [r3, #4]
 8003f76:	811c      	strh	r4, [r3, #8]
 8003f78:	8159      	strh	r1, [r3, #10]
 8003f7a:	80da      	strh	r2, [r3, #6]
 8003f7c:	2804      	cmp	r0, #4
 8003f7e:	d859      	bhi.n	8004034 <Lcd_Set_Display_Mode+0xd0>
 8003f80:	e8df f010 	tbh	[pc, r0, lsl #1]
 8003f84:	00f3005b 	rscseq	r0, r3, fp, asr r0
 8003f88:	013f00a7 	teqeq	pc, r7, lsr #1
 8003f8c:	f44f0005 	vst4.8	{d16-d19}, [pc], r5
 8003f90:	70a0      	strb	r0, [r4, #2]
 8003f92:	22f0      	movs	r2, #240	; 0xf0
 8003f94:	f44f 6100 	mov.w	r1, #2048	; 0x800
 8003f98:	805a      	strh	r2, [r3, #2]
 8003f9a:	8018      	strh	r0, [r3, #0]
 8003f9c:	f2c4 0101 	movt	r1, #16385	; 0x4001
 8003fa0:	68cb      	ldr	r3, [r1, #12]
 8003fa2:	f44f 6240 	mov.w	r2, #3072	; 0xc00
 8003fa6:	f023 0310 	bic.w	r3, r3, #16
 8003faa:	60cb      	str	r3, [r1, #12]
 8003fac:	f2c4 0201 	movt	r2, #16385	; 0x4001
 8003fb0:	68d0      	ldr	r0, [r2, #12]
 8003fb2:	f44f 5340 	mov.w	r3, #12288	; 0x3000
 8003fb6:	f2c4 0301 	movt	r3, #16385	; 0x4001
 8003fba:	f420 7000 	bic.w	r0, r0, #512	; 0x200
 8003fbe:	2136      	movs	r1, #54	; 0x36
 8003fc0:	60d0      	str	r0, [r2, #12]
 8003fc2:	461a      	mov	r2, r3
 8003fc4:	8199      	strh	r1, [r3, #12]
 8003fc6:	8913      	ldrh	r3, [r2, #8]
 8003fc8:	0799      	lsls	r1, r3, #30
 8003fca:	d5fc      	bpl.n	8003fc6 <Lcd_Set_Display_Mode+0x62>
 8003fcc:	f44f 5140 	mov.w	r1, #12288	; 0x3000
 8003fd0:	f2c4 0101 	movt	r1, #16385	; 0x4001
 8003fd4:	890a      	ldrh	r2, [r1, #8]
 8003fd6:	f44f 5340 	mov.w	r3, #12288	; 0x3000
 8003fda:	0612      	lsls	r2, r2, #24
 8003fdc:	f2c4 0301 	movt	r3, #16385	; 0x4001
 8003fe0:	d4f8      	bmi.n	8003fd4 <Lcd_Set_Display_Mode+0x70>
 8003fe2:	f44f 6200 	mov.w	r2, #2048	; 0x800
 8003fe6:	f2c4 0201 	movt	r2, #16385	; 0x4001
 8003fea:	68d0      	ldr	r0, [r2, #12]
 8003fec:	f44f 6140 	mov.w	r1, #3072	; 0xc00
 8003ff0:	f040 0010 	orr.w	r0, r0, #16
 8003ff4:	60d0      	str	r0, [r2, #12]
 8003ff6:	68d0      	ldr	r0, [r2, #12]
 8003ff8:	f2c4 0101 	movt	r1, #16385	; 0x4001
 8003ffc:	f020 0010 	bic.w	r0, r0, #16
 8004000:	60d0      	str	r0, [r2, #12]
 8004002:	68ca      	ldr	r2, [r1, #12]
 8004004:	20e8      	movs	r0, #232	; 0xe8
 8004006:	f442 7200 	orr.w	r2, r2, #512	; 0x200
 800400a:	60ca      	str	r2, [r1, #12]
 800400c:	461a      	mov	r2, r3
 800400e:	8198      	strh	r0, [r3, #12]
 8004010:	8913      	ldrh	r3, [r2, #8]
 8004012:	079c      	lsls	r4, r3, #30
 8004014:	d5fc      	bpl.n	8004010 <Lcd_Set_Display_Mode+0xac>
 8004016:	f44f 5240 	mov.w	r2, #12288	; 0x3000
 800401a:	f2c4 0201 	movt	r2, #16385	; 0x4001
 800401e:	8913      	ldrh	r3, [r2, #8]
 8004020:	0618      	lsls	r0, r3, #24
 8004022:	d4fc      	bmi.n	800401e <Lcd_Set_Display_Mode+0xba>
 8004024:	f44f 6300 	mov.w	r3, #2048	; 0x800
 8004028:	f2c4 0301 	movt	r3, #16385	; 0x4001
 800402c:	68da      	ldr	r2, [r3, #12]
 800402e:	f042 0210 	orr.w	r2, r2, #16
 8004032:	60da      	str	r2, [r3, #12]
 8004034:	f85d 4b04 	ldr.w	r4, [sp], #4
 8004038:	4770      	bx	lr
 800403a:	20f0      	movs	r0, #240	; 0xf0
 800403c:	f44f 72a0 	mov.w	r2, #320	; 0x140
 8004040:	f44f 6100 	mov.w	r1, #2048	; 0x800
 8004044:	805a      	strh	r2, [r3, #2]
 8004046:	8018      	strh	r0, [r3, #0]
 8004048:	f2c4 0101 	movt	r1, #16385	; 0x4001
 800404c:	68cb      	ldr	r3, [r1, #12]
 800404e:	f44f 6240 	mov.w	r2, #3072	; 0xc00
 8004052:	f023 0310 	bic.w	r3, r3, #16
 8004056:	60cb      	str	r3, [r1, #12]
 8004058:	f2c4 0201 	movt	r2, #16385	; 0x4001
 800405c:	68d0      	ldr	r0, [r2, #12]
 800405e:	f44f 5340 	mov.w	r3, #12288	; 0x3000
 8004062:	f2c4 0301 	movt	r3, #16385	; 0x4001
 8004066:	f420 7000 	bic.w	r0, r0, #512	; 0x200
 800406a:	2136      	movs	r1, #54	; 0x36
 800406c:	60d0      	str	r0, [r2, #12]
 800406e:	461a      	mov	r2, r3
 8004070:	8199      	strh	r1, [r3, #12]
 8004072:	8913      	ldrh	r3, [r2, #8]
 8004074:	0799      	lsls	r1, r3, #30
 8004076:	d5fc      	bpl.n	8004072 <Lcd_Set_Display_Mode+0x10e>
 8004078:	f44f 5140 	mov.w	r1, #12288	; 0x3000
 800407c:	f2c4 0101 	movt	r1, #16385	; 0x4001
 8004080:	890a      	ldrh	r2, [r1, #8]
 8004082:	f44f 5340 	mov.w	r3, #12288	; 0x3000
 8004086:	0612      	lsls	r2, r2, #24
 8004088:	f2c4 0301 	movt	r3, #16385	; 0x4001
 800408c:	d4f8      	bmi.n	8004080 <Lcd_Set_Display_Mode+0x11c>
 800408e:	f44f 6200 	mov.w	r2, #2048	; 0x800
 8004092:	f2c4 0201 	movt	r2, #16385	; 0x4001
 8004096:	68d0      	ldr	r0, [r2, #12]
 8004098:	f44f 6140 	mov.w	r1, #3072	; 0xc00
 800409c:	f040 0010 	orr.w	r0, r0, #16
 80040a0:	60d0      	str	r0, [r2, #12]
 80040a2:	68d0      	ldr	r0, [r2, #12]
 80040a4:	f2c4 0101 	movt	r1, #16385	; 0x4001
 80040a8:	f020 0010 	bic.w	r0, r0, #16
 80040ac:	60d0      	str	r0, [r2, #12]
 80040ae:	68ca      	ldr	r2, [r1, #12]
 80040b0:	2008      	movs	r0, #8
 80040b2:	f442 7200 	orr.w	r2, r2, #512	; 0x200
 80040b6:	60ca      	str	r2, [r1, #12]
 80040b8:	461a      	mov	r2, r3
 80040ba:	8198      	strh	r0, [r3, #12]
 80040bc:	8913      	ldrh	r3, [r2, #8]
 80040be:	079c      	lsls	r4, r3, #30
 80040c0:	d5fc      	bpl.n	80040bc <Lcd_Set_Display_Mode+0x158>
 80040c2:	f44f 5240 	mov.w	r2, #12288	; 0x3000
 80040c6:	f2c4 0201 	movt	r2, #16385	; 0x4001
 80040ca:	8913      	ldrh	r3, [r2, #8]
 80040cc:	0618      	lsls	r0, r3, #24
 80040ce:	d4fc      	bmi.n	80040ca <Lcd_Set_Display_Mode+0x166>
 80040d0:	e7a8      	b.n	8004024 <Lcd_Set_Display_Mode+0xc0>
 80040d2:	20f0      	movs	r0, #240	; 0xf0
 80040d4:	f44f 72a0 	mov.w	r2, #320	; 0x140
 80040d8:	f44f 6100 	mov.w	r1, #2048	; 0x800
 80040dc:	805a      	strh	r2, [r3, #2]
 80040de:	8018      	strh	r0, [r3, #0]
 80040e0:	f2c4 0101 	movt	r1, #16385	; 0x4001
 80040e4:	68cb      	ldr	r3, [r1, #12]
 80040e6:	f44f 6240 	mov.w	r2, #3072	; 0xc00
 80040ea:	f023 0310 	bic.w	r3, r3, #16
 80040ee:	60cb      	str	r3, [r1, #12]
 80040f0:	f2c4 0201 	movt	r2, #16385	; 0x4001
 80040f4:	68d0      	ldr	r0, [r2, #12]
 80040f6:	f44f 5340 	mov.w	r3, #12288	; 0x3000
 80040fa:	f2c4 0301 	movt	r3, #16385	; 0x4001
 80040fe:	f420 7000 	bic.w	r0, r0, #512	; 0x200
 8004102:	2136      	movs	r1, #54	; 0x36
 8004104:	60d0      	str	r0, [r2, #12]
 8004106:	461a      	mov	r2, r3
 8004108:	8199      	strh	r1, [r3, #12]
 800410a:	8913      	ldrh	r3, [r2, #8]
 800410c:	0799      	lsls	r1, r3, #30
 800410e:	d5fc      	bpl.n	800410a <Lcd_Set_Display_Mode+0x1a6>
 8004110:	f44f 5140 	mov.w	r1, #12288	; 0x3000
 8004114:	f2c4 0101 	movt	r1, #16385	; 0x4001
 8004118:	890a      	ldrh	r2, [r1, #8]
 800411a:	f44f 5340 	mov.w	r3, #12288	; 0x3000
 800411e:	0612      	lsls	r2, r2, #24
 8004120:	f2c4 0301 	movt	r3, #16385	; 0x4001
 8004124:	d4f8      	bmi.n	8004118 <Lcd_Set_Display_Mode+0x1b4>
 8004126:	f44f 6200 	mov.w	r2, #2048	; 0x800
 800412a:	f2c4 0201 	movt	r2, #16385	; 0x4001
 800412e:	68d0      	ldr	r0, [r2, #12]
 8004130:	f44f 6140 	mov.w	r1, #3072	; 0xc00
 8004134:	f040 0010 	orr.w	r0, r0, #16
 8004138:	60d0      	str	r0, [r2, #12]
 800413a:	68d0      	ldr	r0, [r2, #12]
 800413c:	f2c4 0101 	movt	r1, #16385	; 0x4001
 8004140:	f020 0010 	bic.w	r0, r0, #16
 8004144:	60d0      	str	r0, [r2, #12]
 8004146:	68ca      	ldr	r2, [r1, #12]
 8004148:	20c8      	movs	r0, #200	; 0xc8
 800414a:	f442 7200 	orr.w	r2, r2, #512	; 0x200
 800414e:	60ca      	str	r2, [r1, #12]
 8004150:	461a      	mov	r2, r3
 8004152:	8198      	strh	r0, [r3, #12]
 8004154:	8913      	ldrh	r3, [r2, #8]
 8004156:	079c      	lsls	r4, r3, #30
 8004158:	d5fc      	bpl.n	8004154 <Lcd_Set_Display_Mode+0x1f0>
 800415a:	f44f 5240 	mov.w	r2, #12288	; 0x3000
 800415e:	f2c4 0201 	movt	r2, #16385	; 0x4001
 8004162:	8913      	ldrh	r3, [r2, #8]
 8004164:	0618      	lsls	r0, r3, #24
 8004166:	d4fc      	bmi.n	8004162 <Lcd_Set_Display_Mode+0x1fe>
 8004168:	e75c      	b.n	8004024 <Lcd_Set_Display_Mode+0xc0>
 800416a:	f44f 70a0 	mov.w	r0, #320	; 0x140
 800416e:	22f0      	movs	r2, #240	; 0xf0
 8004170:	f44f 6100 	mov.w	r1, #2048	; 0x800
 8004174:	805a      	strh	r2, [r3, #2]
 8004176:	8018      	strh	r0, [r3, #0]
 8004178:	f2c4 0101 	movt	r1, #16385	; 0x4001
 800417c:	68cb      	ldr	r3, [r1, #12]
 800417e:	f44f 6240 	mov.w	r2, #3072	; 0xc00
 8004182:	f023 0310 	bic.w	r3, r3, #16
 8004186:	60cb      	str	r3, [r1, #12]
 8004188:	f2c4 0201 	movt	r2, #16385	; 0x4001
 800418c:	68d0      	ldr	r0, [r2, #12]
 800418e:	f44f 5340 	mov.w	r3, #12288	; 0x3000
 8004192:	f2c4 0301 	movt	r3, #16385	; 0x4001
 8004196:	f420 7000 	bic.w	r0, r0, #512	; 0x200
 800419a:	2136      	movs	r1, #54	; 0x36
 800419c:	60d0      	str	r0, [r2, #12]
 800419e:	461a      	mov	r2, r3
 80041a0:	8199      	strh	r1, [r3, #12]
 80041a2:	8913      	ldrh	r3, [r2, #8]
 80041a4:	0799      	lsls	r1, r3, #30
 80041a6:	d5fc      	bpl.n	80041a2 <Lcd_Set_Display_Mode+0x23e>
 80041a8:	f44f 5140 	mov.w	r1, #12288	; 0x3000
 80041ac:	f2c4 0101 	movt	r1, #16385	; 0x4001
 80041b0:	890a      	ldrh	r2, [r1, #8]
 80041b2:	f44f 5340 	mov.w	r3, #12288	; 0x3000
 80041b6:	0612      	lsls	r2, r2, #24
 80041b8:	f2c4 0301 	movt	r3, #16385	; 0x4001
 80041bc:	d4f8      	bmi.n	80041b0 <Lcd_Set_Display_Mode+0x24c>
 80041be:	f44f 6200 	mov.w	r2, #2048	; 0x800
 80041c2:	f2c4 0201 	movt	r2, #16385	; 0x4001
 80041c6:	68d0      	ldr	r0, [r2, #12]
 80041c8:	f44f 6140 	mov.w	r1, #3072	; 0xc00
 80041cc:	f040 0010 	orr.w	r0, r0, #16
 80041d0:	60d0      	str	r0, [r2, #12]
 80041d2:	68d0      	ldr	r0, [r2, #12]
 80041d4:	f2c4 0101 	movt	r1, #16385	; 0x4001
 80041d8:	f020 0010 	bic.w	r0, r0, #16
 80041dc:	60d0      	str	r0, [r2, #12]
 80041de:	68ca      	ldr	r2, [r1, #12]
 80041e0:	2068      	movs	r0, #104	; 0x68
 80041e2:	f442 7200 	orr.w	r2, r2, #512	; 0x200
 80041e6:	60ca      	str	r2, [r1, #12]
 80041e8:	461a      	mov	r2, r3
 80041ea:	8198      	strh	r0, [r3, #12]
 80041ec:	8913      	ldrh	r3, [r2, #8]
 80041ee:	079c      	lsls	r4, r3, #30
 80041f0:	d5fc      	bpl.n	80041ec <Lcd_Set_Display_Mode+0x288>
 80041f2:	f44f 5240 	mov.w	r2, #12288	; 0x3000
 80041f6:	f2c4 0201 	movt	r2, #16385	; 0x4001
 80041fa:	8913      	ldrh	r3, [r2, #8]
 80041fc:	0618      	lsls	r0, r3, #24
 80041fe:	d4fc      	bmi.n	80041fa <Lcd_Set_Display_Mode+0x296>
 8004200:	e710      	b.n	8004024 <Lcd_Set_Display_Mode+0xc0>
 8004202:	f44f 70a0 	mov.w	r0, #320	; 0x140
 8004206:	22f0      	movs	r2, #240	; 0xf0
 8004208:	f44f 6100 	mov.w	r1, #2048	; 0x800
 800420c:	805a      	strh	r2, [r3, #2]
 800420e:	8018      	strh	r0, [r3, #0]
 8004210:	f2c4 0101 	movt	r1, #16385	; 0x4001
 8004214:	68cb      	ldr	r3, [r1, #12]
 8004216:	f44f 6240 	mov.w	r2, #3072	; 0xc00
 800421a:	f023 0310 	bic.w	r3, r3, #16
 800421e:	60cb      	str	r3, [r1, #12]
 8004220:	f2c4 0201 	movt	r2, #16385	; 0x4001
 8004224:	68d0      	ldr	r0, [r2, #12]
 8004226:	f44f 5340 	mov.w	r3, #12288	; 0x3000
 800422a:	f2c4 0301 	movt	r3, #16385	; 0x4001
 800422e:	f420 7000 	bic.w	r0, r0, #512	; 0x200
 8004232:	2136      	movs	r1, #54	; 0x36
 8004234:	60d0      	str	r0, [r2, #12]
 8004236:	461a      	mov	r2, r3
 8004238:	8199      	strh	r1, [r3, #12]
 800423a:	8913      	ldrh	r3, [r2, #8]
 800423c:	0799      	lsls	r1, r3, #30
 800423e:	d5fc      	bpl.n	800423a <Lcd_Set_Display_Mode+0x2d6>
 8004240:	f44f 5140 	mov.w	r1, #12288	; 0x3000
 8004244:	f2c4 0101 	movt	r1, #16385	; 0x4001
 8004248:	890a      	ldrh	r2, [r1, #8]
 800424a:	f44f 5340 	mov.w	r3, #12288	; 0x3000
 800424e:	0612      	lsls	r2, r2, #24
 8004250:	f2c4 0301 	movt	r3, #16385	; 0x4001
 8004254:	d4f8      	bmi.n	8004248 <Lcd_Set_Display_Mode+0x2e4>
 8004256:	f44f 6200 	mov.w	r2, #2048	; 0x800
 800425a:	f2c4 0201 	movt	r2, #16385	; 0x4001
 800425e:	68d0      	ldr	r0, [r2, #12]
 8004260:	f44f 6140 	mov.w	r1, #3072	; 0xc00
 8004264:	f040 0010 	orr.w	r0, r0, #16
 8004268:	60d0      	str	r0, [r2, #12]
 800426a:	68d0      	ldr	r0, [r2, #12]
 800426c:	f2c4 0101 	movt	r1, #16385	; 0x4001
 8004270:	f020 0010 	bic.w	r0, r0, #16
 8004274:	60d0      	str	r0, [r2, #12]
 8004276:	68ca      	ldr	r2, [r1, #12]
 8004278:	20a8      	movs	r0, #168	; 0xa8
 800427a:	f442 7200 	orr.w	r2, r2, #512	; 0x200
 800427e:	60ca      	str	r2, [r1, #12]
 8004280:	461a      	mov	r2, r3
 8004282:	8198      	strh	r0, [r3, #12]
 8004284:	8913      	ldrh	r3, [r2, #8]
 8004286:	079c      	lsls	r4, r3, #30
 8004288:	d5fc      	bpl.n	8004284 <Lcd_Set_Display_Mode+0x320>
 800428a:	f44f 5240 	mov.w	r2, #12288	; 0x3000
 800428e:	f2c4 0201 	movt	r2, #16385	; 0x4001
 8004292:	8913      	ldrh	r3, [r2, #8]
 8004294:	0618      	lsls	r0, r3, #24
 8004296:	d4fc      	bmi.n	8004292 <Lcd_Set_Display_Mode+0x32e>
 8004298:	e6c4      	b.n	8004024 <Lcd_Set_Display_Mode+0xc0>
 800429a:	bf00      	nop

0800429c <Lcd_Write_RAM_Prepare>:
 800429c:	f44f 6300 	mov.w	r3, #2048	; 0x800
 80042a0:	f2c4 0301 	movt	r3, #16385	; 0x4001
 80042a4:	68d8      	ldr	r0, [r3, #12]
 80042a6:	f240 5188 	movw	r1, #1416	; 0x588
 80042aa:	f020 0010 	bic.w	r0, r0, #16
 80042ae:	f2c2 0100 	movt	r1, #8192	; 0x2000
 80042b2:	f44f 6240 	mov.w	r2, #3072	; 0xc00
 80042b6:	88c9      	ldrh	r1, [r1, #6]
 80042b8:	f2c4 0201 	movt	r2, #16385	; 0x4001
 80042bc:	60d8      	str	r0, [r3, #12]
 80042be:	68d0      	ldr	r0, [r2, #12]
 80042c0:	f44f 5340 	mov.w	r3, #12288	; 0x3000
 80042c4:	f2c4 0301 	movt	r3, #16385	; 0x4001
 80042c8:	b2c9      	uxtb	r1, r1
 80042ca:	f420 7000 	bic.w	r0, r0, #512	; 0x200
 80042ce:	60d0      	str	r0, [r2, #12]
 80042d0:	461a      	mov	r2, r3
 80042d2:	8199      	strh	r1, [r3, #12]
 80042d4:	8913      	ldrh	r3, [r2, #8]
 80042d6:	079b      	lsls	r3, r3, #30
 80042d8:	d5fc      	bpl.n	80042d4 <Lcd_Write_RAM_Prepare+0x38>
 80042da:	f44f 5240 	mov.w	r2, #12288	; 0x3000
 80042de:	f2c4 0201 	movt	r2, #16385	; 0x4001
 80042e2:	8913      	ldrh	r3, [r2, #8]
 80042e4:	0618      	lsls	r0, r3, #24
 80042e6:	d4fc      	bmi.n	80042e2 <Lcd_Write_RAM_Prepare+0x46>
 80042e8:	f44f 6300 	mov.w	r3, #2048	; 0x800
 80042ec:	f2c4 0301 	movt	r3, #16385	; 0x4001
 80042f0:	68da      	ldr	r2, [r3, #12]
 80042f2:	f042 0210 	orr.w	r2, r2, #16
 80042f6:	60da      	str	r2, [r3, #12]
 80042f8:	4770      	bx	lr
 80042fa:	bf00      	nop

080042fc <Lcd_Set_Windows>:
 80042fc:	b4f0      	push	{r4, r5, r6, r7}
 80042fe:	f44f 6500 	mov.w	r5, #2048	; 0x800
 8004302:	f2c4 0501 	movt	r5, #16385	; 0x4001
 8004306:	68ee      	ldr	r6, [r5, #12]
 8004308:	f240 5488 	movw	r4, #1416	; 0x588
 800430c:	f026 0c10 	bic.w	ip, r6, #16
 8004310:	f2c2 0400 	movt	r4, #8192	; 0x2000
 8004314:	f44f 6640 	mov.w	r6, #3072	; 0xc00
 8004318:	8927      	ldrh	r7, [r4, #8]
 800431a:	f2c4 0601 	movt	r6, #16385	; 0x4001
 800431e:	f8c5 c00c 	str.w	ip, [r5, #12]
 8004322:	f8d6 c00c 	ldr.w	ip, [r6, #12]
 8004326:	f44f 5540 	mov.w	r5, #12288	; 0x3000
 800432a:	f2c4 0501 	movt	r5, #16385	; 0x4001
 800432e:	b2ff      	uxtb	r7, r7
 8004330:	f42c 7c00 	bic.w	ip, ip, #512	; 0x200
 8004334:	f8c6 c00c 	str.w	ip, [r6, #12]
 8004338:	462e      	mov	r6, r5
 800433a:	81af      	strh	r7, [r5, #12]
 800433c:	8935      	ldrh	r5, [r6, #8]
 800433e:	07af      	lsls	r7, r5, #30
 8004340:	d5fc      	bpl.n	800433c <Lcd_Set_Windows+0x40>
 8004342:	f44f 5740 	mov.w	r7, #12288	; 0x3000
 8004346:	f2c4 0701 	movt	r7, #16385	; 0x4001
 800434a:	893e      	ldrh	r6, [r7, #8]
 800434c:	f44f 5540 	mov.w	r5, #12288	; 0x3000
 8004350:	0636      	lsls	r6, r6, #24
 8004352:	f2c4 0501 	movt	r5, #16385	; 0x4001
 8004356:	d4f8      	bmi.n	800434a <Lcd_Set_Windows+0x4e>
 8004358:	f44f 6600 	mov.w	r6, #2048	; 0x800
 800435c:	f2c4 0601 	movt	r6, #16385	; 0x4001
 8004360:	f8d6 c00c 	ldr.w	ip, [r6, #12]
 8004364:	f44f 6740 	mov.w	r7, #3072	; 0xc00
 8004368:	f04c 0c10 	orr.w	ip, ip, #16
 800436c:	f8c6 c00c 	str.w	ip, [r6, #12]
 8004370:	f8d6 c00c 	ldr.w	ip, [r6, #12]
 8004374:	f2c4 0701 	movt	r7, #16385	; 0x4001
 8004378:	f02c 0c10 	bic.w	ip, ip, #16
 800437c:	f8c6 c00c 	str.w	ip, [r6, #12]
 8004380:	68fe      	ldr	r6, [r7, #12]
 8004382:	ea4f 2c10 	mov.w	ip, r0, lsr #8
 8004386:	f446 7600 	orr.w	r6, r6, #512	; 0x200
 800438a:	60fe      	str	r6, [r7, #12]
 800438c:	462e      	mov	r6, r5
 800438e:	f8a5 c00c 	strh.w	ip, [r5, #12]
 8004392:	8935      	ldrh	r5, [r6, #8]
 8004394:	07af      	lsls	r7, r5, #30
 8004396:	d5fc      	bpl.n	8004392 <Lcd_Set_Windows+0x96>
 8004398:	f44f 5740 	mov.w	r7, #12288	; 0x3000
 800439c:	f2c4 0701 	movt	r7, #16385	; 0x4001
 80043a0:	893e      	ldrh	r6, [r7, #8]
 80043a2:	f44f 5540 	mov.w	r5, #12288	; 0x3000
 80043a6:	0636      	lsls	r6, r6, #24
 80043a8:	f2c4 0501 	movt	r5, #16385	; 0x4001
 80043ac:	d4f8      	bmi.n	80043a0 <Lcd_Set_Windows+0xa4>
 80043ae:	f44f 6600 	mov.w	r6, #2048	; 0x800
 80043b2:	f2c4 0601 	movt	r6, #16385	; 0x4001
 80043b6:	f8d6 c00c 	ldr.w	ip, [r6, #12]
 80043ba:	f44f 6740 	mov.w	r7, #3072	; 0xc00
 80043be:	f04c 0c10 	orr.w	ip, ip, #16
 80043c2:	f8c6 c00c 	str.w	ip, [r6, #12]
 80043c6:	f8d6 c00c 	ldr.w	ip, [r6, #12]
 80043ca:	f2c4 0701 	movt	r7, #16385	; 0x4001
 80043ce:	f02c 0c10 	bic.w	ip, ip, #16
 80043d2:	f8c6 c00c 	str.w	ip, [r6, #12]
 80043d6:	68fe      	ldr	r6, [r7, #12]
 80043d8:	b2c0      	uxtb	r0, r0
 80043da:	f446 7600 	orr.w	r6, r6, #512	; 0x200
 80043de:	60fe      	str	r6, [r7, #12]
 80043e0:	462e      	mov	r6, r5
 80043e2:	81a8      	strh	r0, [r5, #12]
 80043e4:	8930      	ldrh	r0, [r6, #8]
 80043e6:	0780      	lsls	r0, r0, #30
 80043e8:	d5fc      	bpl.n	80043e4 <Lcd_Set_Windows+0xe8>
 80043ea:	f44f 5640 	mov.w	r6, #12288	; 0x3000
 80043ee:	f2c4 0601 	movt	r6, #16385	; 0x4001
 80043f2:	8935      	ldrh	r5, [r6, #8]
 80043f4:	f44f 5040 	mov.w	r0, #12288	; 0x3000
 80043f8:	062f      	lsls	r7, r5, #24
 80043fa:	f2c4 0001 	movt	r0, #16385	; 0x4001
 80043fe:	d4f8      	bmi.n	80043f2 <Lcd_Set_Windows+0xf6>
 8004400:	f44f 6500 	mov.w	r5, #2048	; 0x800
 8004404:	f2c4 0501 	movt	r5, #16385	; 0x4001
 8004408:	68ef      	ldr	r7, [r5, #12]
 800440a:	f44f 6640 	mov.w	r6, #3072	; 0xc00
 800440e:	f047 0710 	orr.w	r7, r7, #16
 8004412:	60ef      	str	r7, [r5, #12]
 8004414:	68ef      	ldr	r7, [r5, #12]
 8004416:	f2c4 0601 	movt	r6, #16385	; 0x4001
 800441a:	f027 0710 	bic.w	r7, r7, #16
 800441e:	60ef      	str	r7, [r5, #12]
 8004420:	68f5      	ldr	r5, [r6, #12]
 8004422:	0a17      	lsrs	r7, r2, #8
 8004424:	f445 7500 	orr.w	r5, r5, #512	; 0x200
 8004428:	60f5      	str	r5, [r6, #12]
 800442a:	4605      	mov	r5, r0
 800442c:	8187      	strh	r7, [r0, #12]
 800442e:	8928      	ldrh	r0, [r5, #8]
 8004430:	0786      	lsls	r6, r0, #30
 8004432:	d5fc      	bpl.n	800442e <Lcd_Set_Windows+0x132>
 8004434:	f44f 5640 	mov.w	r6, #12288	; 0x3000
 8004438:	f2c4 0601 	movt	r6, #16385	; 0x4001
 800443c:	8935      	ldrh	r5, [r6, #8]
 800443e:	f44f 5040 	mov.w	r0, #12288	; 0x3000
 8004442:	062d      	lsls	r5, r5, #24
 8004444:	f2c4 0001 	movt	r0, #16385	; 0x4001
 8004448:	d4f8      	bmi.n	800443c <Lcd_Set_Windows+0x140>
 800444a:	f44f 6500 	mov.w	r5, #2048	; 0x800
 800444e:	f2c4 0501 	movt	r5, #16385	; 0x4001
 8004452:	68ef      	ldr	r7, [r5, #12]
 8004454:	f44f 6640 	mov.w	r6, #3072	; 0xc00
 8004458:	f047 0710 	orr.w	r7, r7, #16
 800445c:	60ef      	str	r7, [r5, #12]
 800445e:	68ef      	ldr	r7, [r5, #12]
 8004460:	f2c4 0601 	movt	r6, #16385	; 0x4001
 8004464:	f027 0710 	bic.w	r7, r7, #16
 8004468:	60ef      	str	r7, [r5, #12]
 800446a:	68f5      	ldr	r5, [r6, #12]
 800446c:	b2d2      	uxtb	r2, r2
 800446e:	f445 7500 	orr.w	r5, r5, #512	; 0x200
 8004472:	60f5      	str	r5, [r6, #12]
 8004474:	4605      	mov	r5, r0
 8004476:	8182      	strh	r2, [r0, #12]
 8004478:	892a      	ldrh	r2, [r5, #8]
 800447a:	0797      	lsls	r7, r2, #30
 800447c:	d5fc      	bpl.n	8004478 <Lcd_Set_Windows+0x17c>
 800447e:	f44f 5540 	mov.w	r5, #12288	; 0x3000
 8004482:	f2c4 0501 	movt	r5, #16385	; 0x4001
 8004486:	8928      	ldrh	r0, [r5, #8]
 8004488:	f44f 5240 	mov.w	r2, #12288	; 0x3000
 800448c:	0606      	lsls	r6, r0, #24
 800448e:	f2c4 0201 	movt	r2, #16385	; 0x4001
 8004492:	d4f8      	bmi.n	8004486 <Lcd_Set_Windows+0x18a>
 8004494:	f44f 6000 	mov.w	r0, #2048	; 0x800
 8004498:	f2c4 0001 	movt	r0, #16385	; 0x4001
 800449c:	68c6      	ldr	r6, [r0, #12]
 800449e:	f44f 6540 	mov.w	r5, #3072	; 0xc00
 80044a2:	f046 0610 	orr.w	r6, r6, #16
 80044a6:	60c6      	str	r6, [r0, #12]
 80044a8:	68c7      	ldr	r7, [r0, #12]
 80044aa:	8966      	ldrh	r6, [r4, #10]
 80044ac:	f027 0710 	bic.w	r7, r7, #16
 80044b0:	60c7      	str	r7, [r0, #12]
 80044b2:	f2c4 0501 	movt	r5, #16385	; 0x4001
 80044b6:	68e8      	ldr	r0, [r5, #12]
 80044b8:	b2f6      	uxtb	r6, r6
 80044ba:	f420 7000 	bic.w	r0, r0, #512	; 0x200
 80044be:	60e8      	str	r0, [r5, #12]
 80044c0:	4610      	mov	r0, r2
 80044c2:	8196      	strh	r6, [r2, #12]
 80044c4:	8902      	ldrh	r2, [r0, #8]
 80044c6:	0795      	lsls	r5, r2, #30
 80044c8:	d5fc      	bpl.n	80044c4 <Lcd_Set_Windows+0x1c8>
 80044ca:	f44f 5540 	mov.w	r5, #12288	; 0x3000
 80044ce:	f2c4 0501 	movt	r5, #16385	; 0x4001
 80044d2:	8928      	ldrh	r0, [r5, #8]
 80044d4:	f44f 5240 	mov.w	r2, #12288	; 0x3000
 80044d8:	0600      	lsls	r0, r0, #24
 80044da:	f2c4 0201 	movt	r2, #16385	; 0x4001
 80044de:	d4f8      	bmi.n	80044d2 <Lcd_Set_Windows+0x1d6>
 80044e0:	f44f 6000 	mov.w	r0, #2048	; 0x800
 80044e4:	f2c4 0001 	movt	r0, #16385	; 0x4001
 80044e8:	68c6      	ldr	r6, [r0, #12]
 80044ea:	f44f 6540 	mov.w	r5, #3072	; 0xc00
 80044ee:	f046 0610 	orr.w	r6, r6, #16
 80044f2:	60c6      	str	r6, [r0, #12]
 80044f4:	68c6      	ldr	r6, [r0, #12]
 80044f6:	f2c4 0501 	movt	r5, #16385	; 0x4001
 80044fa:	f026 0610 	bic.w	r6, r6, #16
 80044fe:	60c6      	str	r6, [r0, #12]
 8004500:	68e8      	ldr	r0, [r5, #12]
 8004502:	0a0e      	lsrs	r6, r1, #8
 8004504:	f440 7000 	orr.w	r0, r0, #512	; 0x200
 8004508:	60e8      	str	r0, [r5, #12]
 800450a:	4610      	mov	r0, r2
 800450c:	8196      	strh	r6, [r2, #12]
 800450e:	8902      	ldrh	r2, [r0, #8]
 8004510:	0797      	lsls	r7, r2, #30
 8004512:	d5fc      	bpl.n	800450e <Lcd_Set_Windows+0x212>
 8004514:	f44f 5540 	mov.w	r5, #12288	; 0x3000
 8004518:	f2c4 0501 	movt	r5, #16385	; 0x4001
 800451c:	8928      	ldrh	r0, [r5, #8]
 800451e:	f44f 5240 	mov.w	r2, #12288	; 0x3000
 8004522:	0606      	lsls	r6, r0, #24
 8004524:	f2c4 0201 	movt	r2, #16385	; 0x4001
 8004528:	d4f8      	bmi.n	800451c <Lcd_Set_Windows+0x220>
 800452a:	f44f 6000 	mov.w	r0, #2048	; 0x800
 800452e:	f2c4 0001 	movt	r0, #16385	; 0x4001
 8004532:	68c6      	ldr	r6, [r0, #12]
 8004534:	f44f 6540 	mov.w	r5, #3072	; 0xc00
 8004538:	f046 0610 	orr.w	r6, r6, #16
 800453c:	60c6      	str	r6, [r0, #12]
 800453e:	68c6      	ldr	r6, [r0, #12]
 8004540:	f2c4 0501 	movt	r5, #16385	; 0x4001
 8004544:	f026 0610 	bic.w	r6, r6, #16
 8004548:	60c6      	str	r6, [r0, #12]
 800454a:	68e8      	ldr	r0, [r5, #12]
 800454c:	b2c9      	uxtb	r1, r1
 800454e:	f440 7000 	orr.w	r0, r0, #512	; 0x200
 8004552:	60e8      	str	r0, [r5, #12]
 8004554:	4610      	mov	r0, r2
 8004556:	8191      	strh	r1, [r2, #12]
 8004558:	8902      	ldrh	r2, [r0, #8]
 800455a:	0795      	lsls	r5, r2, #30
 800455c:	d5fc      	bpl.n	8004558 <Lcd_Set_Windows+0x25c>
 800455e:	f44f 5040 	mov.w	r0, #12288	; 0x3000
 8004562:	f2c4 0001 	movt	r0, #16385	; 0x4001
 8004566:	8901      	ldrh	r1, [r0, #8]
 8004568:	f44f 5240 	mov.w	r2, #12288	; 0x3000
 800456c:	0609      	lsls	r1, r1, #24
 800456e:	f2c4 0201 	movt	r2, #16385	; 0x4001
 8004572:	d4f8      	bmi.n	8004566 <Lcd_Set_Windows+0x26a>
 8004574:	f44f 6100 	mov.w	r1, #2048	; 0x800
 8004578:	f2c4 0101 	movt	r1, #16385	; 0x4001
 800457c:	68cd      	ldr	r5, [r1, #12]
 800457e:	f44f 6040 	mov.w	r0, #3072	; 0xc00
 8004582:	f045 0510 	orr.w	r5, r5, #16
 8004586:	60cd      	str	r5, [r1, #12]
 8004588:	68cd      	ldr	r5, [r1, #12]
 800458a:	f2c4 0001 	movt	r0, #16385	; 0x4001
 800458e:	f025 0510 	bic.w	r5, r5, #16
 8004592:	60cd      	str	r5, [r1, #12]
 8004594:	68c1      	ldr	r1, [r0, #12]
 8004596:	0a1d      	lsrs	r5, r3, #8
 8004598:	f441 7100 	orr.w	r1, r1, #512	; 0x200
 800459c:	60c1      	str	r1, [r0, #12]
 800459e:	4611      	mov	r1, r2
 80045a0:	8195      	strh	r5, [r2, #12]
 80045a2:	890a      	ldrh	r2, [r1, #8]
 80045a4:	0792      	lsls	r2, r2, #30
 80045a6:	d5fc      	bpl.n	80045a2 <Lcd_Set_Windows+0x2a6>
 80045a8:	f44f 5040 	mov.w	r0, #12288	; 0x3000
 80045ac:	f2c4 0001 	movt	r0, #16385	; 0x4001
 80045b0:	8901      	ldrh	r1, [r0, #8]
 80045b2:	f44f 5240 	mov.w	r2, #12288	; 0x3000
 80045b6:	060f      	lsls	r7, r1, #24
 80045b8:	f2c4 0201 	movt	r2, #16385	; 0x4001
 80045bc:	d4f8      	bmi.n	80045b0 <Lcd_Set_Windows+0x2b4>
 80045be:	f44f 6100 	mov.w	r1, #2048	; 0x800
 80045c2:	f2c4 0101 	movt	r1, #16385	; 0x4001
 80045c6:	68cd      	ldr	r5, [r1, #12]
 80045c8:	f44f 6040 	mov.w	r0, #3072	; 0xc00
 80045cc:	f045 0510 	orr.w	r5, r5, #16
 80045d0:	60cd      	str	r5, [r1, #12]
 80045d2:	68cd      	ldr	r5, [r1, #12]
 80045d4:	f2c4 0001 	movt	r0, #16385	; 0x4001
 80045d8:	f025 0510 	bic.w	r5, r5, #16
 80045dc:	60cd      	str	r5, [r1, #12]
 80045de:	68c1      	ldr	r1, [r0, #12]
 80045e0:	b2db      	uxtb	r3, r3
 80045e2:	f441 7100 	orr.w	r1, r1, #512	; 0x200
 80045e6:	60c1      	str	r1, [r0, #12]
 80045e8:	4611      	mov	r1, r2
 80045ea:	8193      	strh	r3, [r2, #12]
 80045ec:	890b      	ldrh	r3, [r1, #8]
 80045ee:	079e      	lsls	r6, r3, #30
 80045f0:	d5fc      	bpl.n	80045ec <Lcd_Set_Windows+0x2f0>
 80045f2:	f44f 5140 	mov.w	r1, #12288	; 0x3000
 80045f6:	f2c4 0101 	movt	r1, #16385	; 0x4001
 80045fa:	890a      	ldrh	r2, [r1, #8]
 80045fc:	f44f 5340 	mov.w	r3, #12288	; 0x3000
 8004600:	0615      	lsls	r5, r2, #24
 8004602:	f2c4 0301 	movt	r3, #16385	; 0x4001
 8004606:	d4f8      	bmi.n	80045fa <Lcd_Set_Windows+0x2fe>
 8004608:	f44f 6200 	mov.w	r2, #2048	; 0x800
 800460c:	f2c4 0201 	movt	r2, #16385	; 0x4001
 8004610:	68d0      	ldr	r0, [r2, #12]
 8004612:	f44f 6140 	mov.w	r1, #3072	; 0xc00
 8004616:	f040 0010 	orr.w	r0, r0, #16
 800461a:	60d0      	str	r0, [r2, #12]
 800461c:	68d5      	ldr	r5, [r2, #12]
 800461e:	88e0      	ldrh	r0, [r4, #6]
 8004620:	f025 0410 	bic.w	r4, r5, #16
 8004624:	60d4      	str	r4, [r2, #12]
 8004626:	f2c4 0101 	movt	r1, #16385	; 0x4001
 800462a:	68ca      	ldr	r2, [r1, #12]
 800462c:	b2c0      	uxtb	r0, r0
 800462e:	f422 7200 	bic.w	r2, r2, #512	; 0x200
 8004632:	60ca      	str	r2, [r1, #12]
 8004634:	461a      	mov	r2, r3
 8004636:	8198      	strh	r0, [r3, #12]
 8004638:	8913      	ldrh	r3, [r2, #8]
 800463a:	0798      	lsls	r0, r3, #30
 800463c:	d5fc      	bpl.n	8004638 <Lcd_Set_Windows+0x33c>
 800463e:	f44f 5240 	mov.w	r2, #12288	; 0x3000
 8004642:	f2c4 0201 	movt	r2, #16385	; 0x4001
 8004646:	8913      	ldrh	r3, [r2, #8]
 8004648:	0619      	lsls	r1, r3, #24
 800464a:	d4fc      	bmi.n	8004646 <Lcd_Set_Windows+0x34a>
 800464c:	f44f 6300 	mov.w	r3, #2048	; 0x800
 8004650:	f2c4 0301 	movt	r3, #16385	; 0x4001
 8004654:	68da      	ldr	r2, [r3, #12]
 8004656:	f042 0210 	orr.w	r2, r2, #16
 800465a:	60da      	str	r2, [r3, #12]
 800465c:	bcf0      	pop	{r4, r5, r6, r7}
 800465e:	4770      	bx	lr

08004660 <Lcd_Fill>:
 8004660:	e92d 47f0 	stmdb	sp!, {r4, r5, r6, r7, r8, r9, sl, lr}
 8004664:	1a5e      	subs	r6, r3, r1
 8004666:	3601      	adds	r6, #1
 8004668:	1a15      	subs	r5, r2, r0
 800466a:	b2b6      	uxth	r6, r6
 800466c:	3501      	adds	r5, #1
 800466e:	b2ad      	uxth	r5, r5
 8004670:	f8bd 4020 	ldrh.w	r4, [sp, #32]
 8004674:	f7ff fe42 	bl	80042fc <Lcd_Set_Windows>
 8004678:	2e00      	cmp	r6, #0
 800467a:	d03d      	beq.n	80046f8 <Lcd_Fill+0x98>
 800467c:	f44f 6000 	mov.w	r0, #2048	; 0x800
 8004680:	f44f 6740 	mov.w	r7, #3072	; 0xc00
 8004684:	f44f 5340 	mov.w	r3, #12288	; 0x3000
 8004688:	f2c4 0001 	movt	r0, #16385	; 0x4001
 800468c:	f2c4 0701 	movt	r7, #16385	; 0x4001
 8004690:	f2c4 0301 	movt	r3, #16385	; 0x4001
 8004694:	ea4f 2814 	mov.w	r8, r4, lsr #8
 8004698:	fa5f fc84 	uxtb.w	ip, r4
 800469c:	f04f 0900 	mov.w	r9, #0
 80046a0:	b325      	cbz	r5, 80046ec <Lcd_Fill+0x8c>
 80046a2:	2400      	movs	r4, #0
 80046a4:	68c2      	ldr	r2, [r0, #12]
 80046a6:	f022 0210 	bic.w	r2, r2, #16
 80046aa:	60c2      	str	r2, [r0, #12]
 80046ac:	68fa      	ldr	r2, [r7, #12]
 80046ae:	f442 7200 	orr.w	r2, r2, #512	; 0x200
 80046b2:	60fa      	str	r2, [r7, #12]
 80046b4:	f8a3 800c 	strh.w	r8, [r3, #12]
 80046b8:	891a      	ldrh	r2, [r3, #8]
 80046ba:	0792      	lsls	r2, r2, #30
 80046bc:	d5fc      	bpl.n	80046b8 <Lcd_Fill+0x58>
 80046be:	8919      	ldrh	r1, [r3, #8]
 80046c0:	f44f 5240 	mov.w	r2, #12288	; 0x3000
 80046c4:	0609      	lsls	r1, r1, #24
 80046c6:	f2c4 0201 	movt	r2, #16385	; 0x4001
 80046ca:	d4f8      	bmi.n	80046be <Lcd_Fill+0x5e>
 80046cc:	f8a2 c00c 	strh.w	ip, [r2, #12]
 80046d0:	891a      	ldrh	r2, [r3, #8]
 80046d2:	0791      	lsls	r1, r2, #30
 80046d4:	d5fc      	bpl.n	80046d0 <Lcd_Fill+0x70>
 80046d6:	891a      	ldrh	r2, [r3, #8]
 80046d8:	0612      	lsls	r2, r2, #24
 80046da:	d4fc      	bmi.n	80046d6 <Lcd_Fill+0x76>
 80046dc:	68c2      	ldr	r2, [r0, #12]
 80046de:	3401      	adds	r4, #1
 80046e0:	b2a4      	uxth	r4, r4
 80046e2:	f042 0210 	orr.w	r2, r2, #16
 80046e6:	42a5      	cmp	r5, r4
 80046e8:	60c2      	str	r2, [r0, #12]
 80046ea:	d1db      	bne.n	80046a4 <Lcd_Fill+0x44>
 80046ec:	f109 0901 	add.w	r9, r9, #1
 80046f0:	fa1f f989 	uxth.w	r9, r9
 80046f4:	454e      	cmp	r6, r9
 80046f6:	d1d3      	bne.n	80046a0 <Lcd_Fill+0x40>
 80046f8:	f240 5388 	movw	r3, #1416	; 0x588
 80046fc:	f2c2 0300 	movt	r3, #8192	; 0x2000
 8004700:	881a      	ldrh	r2, [r3, #0]
 8004702:	885b      	ldrh	r3, [r3, #2]
 8004704:	3a01      	subs	r2, #1
 8004706:	3b01      	subs	r3, #1
 8004708:	2000      	movs	r0, #0
 800470a:	b292      	uxth	r2, r2
 800470c:	b29b      	uxth	r3, r3
 800470e:	4601      	mov	r1, r0
 8004710:	e8bd 47f0 	ldmia.w	sp!, {r4, r5, r6, r7, r8, r9, sl, lr}
 8004714:	f7ff bdf2 	b.w	80042fc <Lcd_Set_Windows>

08004718 <Lcd_Set_Cursor>:
 8004718:	b4f0      	push	{r4, r5, r6, r7}
 800471a:	f44f 6300 	mov.w	r3, #2048	; 0x800
 800471e:	f2c4 0301 	movt	r3, #16385	; 0x4001
 8004722:	68de      	ldr	r6, [r3, #12]
 8004724:	f240 5288 	movw	r2, #1416	; 0x588
 8004728:	f026 0610 	bic.w	r6, r6, #16
 800472c:	f2c2 0200 	movt	r2, #8192	; 0x2000
 8004730:	f44f 6440 	mov.w	r4, #3072	; 0xc00
 8004734:	8915      	ldrh	r5, [r2, #8]
 8004736:	f2c4 0401 	movt	r4, #16385	; 0x4001
 800473a:	60de      	str	r6, [r3, #12]
 800473c:	68e6      	ldr	r6, [r4, #12]
 800473e:	f44f 5340 	mov.w	r3, #12288	; 0x3000
 8004742:	f2c4 0301 	movt	r3, #16385	; 0x4001
 8004746:	b2ed      	uxtb	r5, r5
 8004748:	f426 7600 	bic.w	r6, r6, #512	; 0x200
 800474c:	60e6      	str	r6, [r4, #12]
 800474e:	461c      	mov	r4, r3
 8004750:	819d      	strh	r5, [r3, #12]
 8004752:	8923      	ldrh	r3, [r4, #8]
 8004754:	079d      	lsls	r5, r3, #30
 8004756:	d5fc      	bpl.n	8004752 <Lcd_Set_Cursor+0x3a>
 8004758:	f44f 5540 	mov.w	r5, #12288	; 0x3000
 800475c:	f2c4 0501 	movt	r5, #16385	; 0x4001
 8004760:	892c      	ldrh	r4, [r5, #8]
 8004762:	f44f 5340 	mov.w	r3, #12288	; 0x3000
 8004766:	0624      	lsls	r4, r4, #24
 8004768:	f2c4 0301 	movt	r3, #16385	; 0x4001
 800476c:	d4f8      	bmi.n	8004760 <Lcd_Set_Cursor+0x48>
 800476e:	f44f 6400 	mov.w	r4, #2048	; 0x800
 8004772:	f2c4 0401 	movt	r4, #16385	; 0x4001
 8004776:	68e6      	ldr	r6, [r4, #12]
 8004778:	f44f 6540 	mov.w	r5, #3072	; 0xc00
 800477c:	f046 0610 	orr.w	r6, r6, #16
 8004780:	60e6      	str	r6, [r4, #12]
 8004782:	68e6      	ldr	r6, [r4, #12]
 8004784:	f2c4 0501 	movt	r5, #16385	; 0x4001
 8004788:	f026 0610 	bic.w	r6, r6, #16
 800478c:	60e6      	str	r6, [r4, #12]
 800478e:	68ec      	ldr	r4, [r5, #12]
 8004790:	0a06      	lsrs	r6, r0, #8
 8004792:	f444 7400 	orr.w	r4, r4, #512	; 0x200
 8004796:	60ec      	str	r4, [r5, #12]
 8004798:	461c      	mov	r4, r3
 800479a:	819e      	strh	r6, [r3, #12]
 800479c:	8923      	ldrh	r3, [r4, #8]
 800479e:	079b      	lsls	r3, r3, #30
 80047a0:	d5fc      	bpl.n	800479c <Lcd_Set_Cursor+0x84>
 80047a2:	f44f 5540 	mov.w	r5, #12288	; 0x3000
 80047a6:	f2c4 0501 	movt	r5, #16385	; 0x4001
 80047aa:	892c      	ldrh	r4, [r5, #8]
 80047ac:	f44f 5340 	mov.w	r3, #12288	; 0x3000
 80047b0:	0627      	lsls	r7, r4, #24
 80047b2:	f2c4 0301 	movt	r3, #16385	; 0x4001
 80047b6:	d4f8      	bmi.n	80047aa <Lcd_Set_Cursor+0x92>
 80047b8:	f44f 6400 	mov.w	r4, #2048	; 0x800
 80047bc:	f2c4 0401 	movt	r4, #16385	; 0x4001
 80047c0:	68e7      	ldr	r7, [r4, #12]
 80047c2:	f44f 6540 	mov.w	r5, #3072	; 0xc00
 80047c6:	f047 0710 	orr.w	r7, r7, #16
 80047ca:	60e7      	str	r7, [r4, #12]
 80047cc:	68e7      	ldr	r7, [r4, #12]
 80047ce:	f2c4 0501 	movt	r5, #16385	; 0x4001
 80047d2:	f027 0710 	bic.w	r7, r7, #16
 80047d6:	60e7      	str	r7, [r4, #12]
 80047d8:	68ec      	ldr	r4, [r5, #12]
 80047da:	b2c0      	uxtb	r0, r0
 80047dc:	f444 7400 	orr.w	r4, r4, #512	; 0x200
 80047e0:	60ec      	str	r4, [r5, #12]
 80047e2:	461c      	mov	r4, r3
 80047e4:	8198      	strh	r0, [r3, #12]
 80047e6:	8923      	ldrh	r3, [r4, #8]
 80047e8:	079d      	lsls	r5, r3, #30
 80047ea:	d5fc      	bpl.n	80047e6 <Lcd_Set_Cursor+0xce>
 80047ec:	f44f 5540 	mov.w	r5, #12288	; 0x3000
 80047f0:	f2c4 0501 	movt	r5, #16385	; 0x4001
 80047f4:	892c      	ldrh	r4, [r5, #8]
 80047f6:	f44f 5340 	mov.w	r3, #12288	; 0x3000
 80047fa:	0624      	lsls	r4, r4, #24
 80047fc:	f2c4 0301 	movt	r3, #16385	; 0x4001
 8004800:	d4f8      	bmi.n	80047f4 <Lcd_Set_Cursor+0xdc>
 8004802:	f44f 6400 	mov.w	r4, #2048	; 0x800
 8004806:	f2c4 0401 	movt	r4, #16385	; 0x4001
 800480a:	68e7      	ldr	r7, [r4, #12]
 800480c:	f44f 6540 	mov.w	r5, #3072	; 0xc00
 8004810:	f047 0710 	orr.w	r7, r7, #16
 8004814:	60e7      	str	r7, [r4, #12]
 8004816:	68e7      	ldr	r7, [r4, #12]
 8004818:	f2c4 0501 	movt	r5, #16385	; 0x4001
 800481c:	f027 0710 	bic.w	r7, r7, #16
 8004820:	60e7      	str	r7, [r4, #12]
 8004822:	68ef      	ldr	r7, [r5, #12]
 8004824:	461c      	mov	r4, r3
 8004826:	f447 7700 	orr.w	r7, r7, #512	; 0x200
 800482a:	60ef      	str	r7, [r5, #12]
 800482c:	819e      	strh	r6, [r3, #12]
 800482e:	8923      	ldrh	r3, [r4, #8]
 8004830:	079b      	lsls	r3, r3, #30
 8004832:	d5fc      	bpl.n	800482e <Lcd_Set_Cursor+0x116>
 8004834:	f44f 5540 	mov.w	r5, #12288	; 0x3000
 8004838:	f2c4 0501 	movt	r5, #16385	; 0x4001
 800483c:	892c      	ldrh	r4, [r5, #8]
 800483e:	f44f 5340 	mov.w	r3, #12288	; 0x3000
 8004842:	0627      	lsls	r7, r4, #24
 8004844:	f2c4 0301 	movt	r3, #16385	; 0x4001
 8004848:	d4f8      	bmi.n	800483c <Lcd_Set_Cursor+0x124>
 800484a:	f44f 6400 	mov.w	r4, #2048	; 0x800
 800484e:	f2c4 0401 	movt	r4, #16385	; 0x4001
 8004852:	68e6      	ldr	r6, [r4, #12]
 8004854:	f44f 6540 	mov.w	r5, #3072	; 0xc00
 8004858:	f046 0610 	orr.w	r6, r6, #16
 800485c:	60e6      	str	r6, [r4, #12]
 800485e:	68e6      	ldr	r6, [r4, #12]
 8004860:	f2c4 0501 	movt	r5, #16385	; 0x4001
 8004864:	f026 0610 	bic.w	r6, r6, #16
 8004868:	60e6      	str	r6, [r4, #12]
 800486a:	68ee      	ldr	r6, [r5, #12]
 800486c:	461c      	mov	r4, r3
 800486e:	f446 7600 	orr.w	r6, r6, #512	; 0x200
 8004872:	60ee      	str	r6, [r5, #12]
 8004874:	8198      	strh	r0, [r3, #12]
 8004876:	8923      	ldrh	r3, [r4, #8]
 8004878:	079e      	lsls	r6, r3, #30
 800487a:	d5fc      	bpl.n	8004876 <Lcd_Set_Cursor+0x15e>
 800487c:	f44f 5440 	mov.w	r4, #12288	; 0x3000
 8004880:	f2c4 0401 	movt	r4, #16385	; 0x4001
 8004884:	8920      	ldrh	r0, [r4, #8]
 8004886:	f44f 5340 	mov.w	r3, #12288	; 0x3000
 800488a:	0605      	lsls	r5, r0, #24
 800488c:	f2c4 0301 	movt	r3, #16385	; 0x4001
 8004890:	d4f8      	bmi.n	8004884 <Lcd_Set_Cursor+0x16c>
 8004892:	f44f 6000 	mov.w	r0, #2048	; 0x800
 8004896:	f2c4 0001 	movt	r0, #16385	; 0x4001
 800489a:	68c5      	ldr	r5, [r0, #12]
 800489c:	f44f 6440 	mov.w	r4, #3072	; 0xc00
 80048a0:	f045 0510 	orr.w	r5, r5, #16
 80048a4:	60c5      	str	r5, [r0, #12]
 80048a6:	68c6      	ldr	r6, [r0, #12]
 80048a8:	8955      	ldrh	r5, [r2, #10]
 80048aa:	f026 0610 	bic.w	r6, r6, #16
 80048ae:	60c6      	str	r6, [r0, #12]
 80048b0:	f2c4 0401 	movt	r4, #16385	; 0x4001
 80048b4:	68e0      	ldr	r0, [r4, #12]
 80048b6:	b2ed      	uxtb	r5, r5
 80048b8:	f420 7000 	bic.w	r0, r0, #512	; 0x200
 80048bc:	60e0      	str	r0, [r4, #12]
 80048be:	4618      	mov	r0, r3
 80048c0:	819d      	strh	r5, [r3, #12]
 80048c2:	8903      	ldrh	r3, [r0, #8]
 80048c4:	079c      	lsls	r4, r3, #30
 80048c6:	d5fc      	bpl.n	80048c2 <Lcd_Set_Cursor+0x1aa>
 80048c8:	f44f 5440 	mov.w	r4, #12288	; 0x3000
 80048cc:	f2c4 0401 	movt	r4, #16385	; 0x4001
 80048d0:	8920      	ldrh	r0, [r4, #8]
 80048d2:	f44f 5340 	mov.w	r3, #12288	; 0x3000
 80048d6:	0600      	lsls	r0, r0, #24
 80048d8:	f2c4 0301 	movt	r3, #16385	; 0x4001
 80048dc:	d4f8      	bmi.n	80048d0 <Lcd_Set_Cursor+0x1b8>
 80048de:	f44f 6000 	mov.w	r0, #2048	; 0x800
 80048e2:	f2c4 0001 	movt	r0, #16385	; 0x4001
 80048e6:	68c5      	ldr	r5, [r0, #12]
 80048e8:	f44f 6440 	mov.w	r4, #3072	; 0xc00
 80048ec:	f045 0510 	orr.w	r5, r5, #16
 80048f0:	60c5      	str	r5, [r0, #12]
 80048f2:	68c5      	ldr	r5, [r0, #12]
 80048f4:	f2c4 0401 	movt	r4, #16385	; 0x4001
 80048f8:	f025 0510 	bic.w	r5, r5, #16
 80048fc:	60c5      	str	r5, [r0, #12]
 80048fe:	68e0      	ldr	r0, [r4, #12]
 8004900:	0a0d      	lsrs	r5, r1, #8
 8004902:	f440 7000 	orr.w	r0, r0, #512	; 0x200
 8004906:	60e0      	str	r0, [r4, #12]
 8004908:	4618      	mov	r0, r3
 800490a:	819d      	strh	r5, [r3, #12]
 800490c:	8903      	ldrh	r3, [r0, #8]
 800490e:	079f      	lsls	r7, r3, #30
 8004910:	d5fc      	bpl.n	800490c <Lcd_Set_Cursor+0x1f4>
 8004912:	f44f 5440 	mov.w	r4, #12288	; 0x3000
 8004916:	f2c4 0401 	movt	r4, #16385	; 0x4001
 800491a:	8920      	ldrh	r0, [r4, #8]
 800491c:	f44f 5340 	mov.w	r3, #12288	; 0x3000
 8004920:	0606      	lsls	r6, r0, #24
 8004922:	f2c4 0301 	movt	r3, #16385	; 0x4001
 8004926:	d4f8      	bmi.n	800491a <Lcd_Set_Cursor+0x202>
 8004928:	f44f 6000 	mov.w	r0, #2048	; 0x800
 800492c:	f2c4 0001 	movt	r0, #16385	; 0x4001
 8004930:	68c6      	ldr	r6, [r0, #12]
 8004932:	f44f 6440 	mov.w	r4, #3072	; 0xc00
 8004936:	f046 0610 	orr.w	r6, r6, #16
 800493a:	60c6      	str	r6, [r0, #12]
 800493c:	68c6      	ldr	r6, [r0, #12]
 800493e:	f2c4 0401 	movt	r4, #16385	; 0x4001
 8004942:	f026 0610 	bic.w	r6, r6, #16
 8004946:	60c6      	str	r6, [r0, #12]
 8004948:	68e0      	ldr	r0, [r4, #12]
 800494a:	b2c9      	uxtb	r1, r1
 800494c:	f440 7000 	orr.w	r0, r0, #512	; 0x200
 8004950:	60e0      	str	r0, [r4, #12]
 8004952:	4618      	mov	r0, r3
 8004954:	8199      	strh	r1, [r3, #12]
 8004956:	8903      	ldrh	r3, [r0, #8]
 8004958:	079c      	lsls	r4, r3, #30
 800495a:	d5fc      	bpl.n	8004956 <Lcd_Set_Cursor+0x23e>
 800495c:	f44f 5440 	mov.w	r4, #12288	; 0x3000
 8004960:	f2c4 0401 	movt	r4, #16385	; 0x4001
 8004964:	8920      	ldrh	r0, [r4, #8]
 8004966:	f44f 5340 	mov.w	r3, #12288	; 0x3000
 800496a:	0600      	lsls	r0, r0, #24
 800496c:	f2c4 0301 	movt	r3, #16385	; 0x4001
 8004970:	d4f8      	bmi.n	8004964 <Lcd_Set_Cursor+0x24c>
 8004972:	f44f 6000 	mov.w	r0, #2048	; 0x800
 8004976:	f2c4 0001 	movt	r0, #16385	; 0x4001
 800497a:	68c6      	ldr	r6, [r0, #12]
 800497c:	f44f 6440 	mov.w	r4, #3072	; 0xc00
 8004980:	f046 0610 	orr.w	r6, r6, #16
 8004984:	60c6      	str	r6, [r0, #12]
 8004986:	68c6      	ldr	r6, [r0, #12]
 8004988:	f2c4 0401 	movt	r4, #16385	; 0x4001
 800498c:	f026 0610 	bic.w	r6, r6, #16
 8004990:	60c6      	str	r6, [r0, #12]
 8004992:	68e6      	ldr	r6, [r4, #12]
 8004994:	4618      	mov	r0, r3
 8004996:	f446 7600 	orr.w	r6, r6, #512	; 0x200
 800499a:	60e6      	str	r6, [r4, #12]
 800499c:	819d      	strh	r5, [r3, #12]
 800499e:	8903      	ldrh	r3, [r0, #8]
 80049a0:	079f      	lsls	r7, r3, #30
 80049a2:	d5fc      	bpl.n	800499e <Lcd_Set_Cursor+0x286>
 80049a4:	f44f 5440 	mov.w	r4, #12288	; 0x3000
 80049a8:	f2c4 0401 	movt	r4, #16385	; 0x4001
 80049ac:	8920      	ldrh	r0, [r4, #8]
 80049ae:	f44f 5340 	mov.w	r3, #12288	; 0x3000
 80049b2:	0606      	lsls	r6, r0, #24
 80049b4:	f2c4 0301 	movt	r3, #16385	; 0x4001
 80049b8:	d4f8      	bmi.n	80049ac <Lcd_Set_Cursor+0x294>
 80049ba:	f44f 6000 	mov.w	r0, #2048	; 0x800
 80049be:	f2c4 0001 	movt	r0, #16385	; 0x4001
 80049c2:	68c5      	ldr	r5, [r0, #12]
 80049c4:	f44f 6440 	mov.w	r4, #3072	; 0xc00
 80049c8:	f045 0510 	orr.w	r5, r5, #16
 80049cc:	60c5      	str	r5, [r0, #12]
 80049ce:	68c5      	ldr	r5, [r0, #12]
 80049d0:	f2c4 0401 	movt	r4, #16385	; 0x4001
 80049d4:	f025 0510 	bic.w	r5, r5, #16
 80049d8:	60c5      	str	r5, [r0, #12]
 80049da:	68e5      	ldr	r5, [r4, #12]
 80049dc:	4618      	mov	r0, r3
 80049de:	f445 7500 	orr.w	r5, r5, #512	; 0x200
 80049e2:	60e5      	str	r5, [r4, #12]
 80049e4:	8199      	strh	r1, [r3, #12]
 80049e6:	8903      	ldrh	r3, [r0, #8]
 80049e8:	079d      	lsls	r5, r3, #30
 80049ea:	d5fc      	bpl.n	80049e6 <Lcd_Set_Cursor+0x2ce>
 80049ec:	f44f 5040 	mov.w	r0, #12288	; 0x3000
 80049f0:	f2c4 0001 	movt	r0, #16385	; 0x4001
 80049f4:	8901      	ldrh	r1, [r0, #8]
 80049f6:	f44f 5340 	mov.w	r3, #12288	; 0x3000
 80049fa:	060c      	lsls	r4, r1, #24
 80049fc:	f2c4 0301 	movt	r3, #16385	; 0x4001
 8004a00:	d4f8      	bmi.n	80049f4 <Lcd_Set_Cursor+0x2dc>
 8004a02:	f44f 6100 	mov.w	r1, #2048	; 0x800
 8004a06:	f2c4 0101 	movt	r1, #16385	; 0x4001
 8004a0a:	68cc      	ldr	r4, [r1, #12]
 8004a0c:	f44f 6040 	mov.w	r0, #3072	; 0xc00
 8004a10:	f044 0410 	orr.w	r4, r4, #16
 8004a14:	60cc      	str	r4, [r1, #12]
 8004a16:	68cd      	ldr	r5, [r1, #12]
 8004a18:	88d4      	ldrh	r4, [r2, #6]
 8004a1a:	f025 0210 	bic.w	r2, r5, #16
 8004a1e:	60ca      	str	r2, [r1, #12]
 8004a20:	f2c4 0001 	movt	r0, #16385	; 0x4001
 8004a24:	68c2      	ldr	r2, [r0, #12]
 8004a26:	b2e1      	uxtb	r1, r4
 8004a28:	f422 7200 	bic.w	r2, r2, #512	; 0x200
 8004a2c:	60c2      	str	r2, [r0, #12]
 8004a2e:	461a      	mov	r2, r3
 8004a30:	8199      	strh	r1, [r3, #12]
 8004a32:	8913      	ldrh	r3, [r2, #8]
 8004a34:	0798      	lsls	r0, r3, #30
 8004a36:	d5fc      	bpl.n	8004a32 <Lcd_Set_Cursor+0x31a>
 8004a38:	f44f 5240 	mov.w	r2, #12288	; 0x3000
 8004a3c:	f2c4 0201 	movt	r2, #16385	; 0x4001
 8004a40:	8913      	ldrh	r3, [r2, #8]
 8004a42:	0619      	lsls	r1, r3, #24
 8004a44:	d4fc      	bmi.n	8004a40 <Lcd_Set_Cursor+0x328>
 8004a46:	f44f 6300 	mov.w	r3, #2048	; 0x800
 8004a4a:	f2c4 0301 	movt	r3, #16385	; 0x4001
 8004a4e:	68da      	ldr	r2, [r3, #12]
 8004a50:	f042 0210 	orr.w	r2, r2, #16
 8004a54:	60da      	str	r2, [r3, #12]
 8004a56:	bcf0      	pop	{r4, r5, r6, r7}
 8004a58:	4770      	bx	lr
 8004a5a:	bf00      	nop

08004a5c <Lcd_Draw_Back_Color>:
 8004a5c:	b5f8      	push	{r3, r4, r5, r6, r7, lr}
 8004a5e:	f240 5788 	movw	r7, #1416	; 0x588
 8004a62:	f2c2 0700 	movt	r7, #8192	; 0x2000
 8004a66:	883a      	ldrh	r2, [r7, #0]
 8004a68:	887b      	ldrh	r3, [r7, #2]
 8004a6a:	4605      	mov	r5, r0
 8004a6c:	3a01      	subs	r2, #1
 8004a6e:	2000      	movs	r0, #0
 8004a70:	3b01      	subs	r3, #1
 8004a72:	4601      	mov	r1, r0
 8004a74:	b292      	uxth	r2, r2
 8004a76:	b29b      	uxth	r3, r3
 8004a78:	f7ff fc40 	bl	80042fc <Lcd_Set_Windows>
 8004a7c:	f44f 6200 	mov.w	r2, #2048	; 0x800
 8004a80:	f2c4 0201 	movt	r2, #16385	; 0x4001
 8004a84:	68d1      	ldr	r1, [r2, #12]
 8004a86:	f44f 6340 	mov.w	r3, #3072	; 0xc00
 8004a8a:	f021 0110 	bic.w	r1, r1, #16
 8004a8e:	60d1      	str	r1, [r2, #12]
 8004a90:	f2c4 0301 	movt	r3, #16385	; 0x4001
 8004a94:	68da      	ldr	r2, [r3, #12]
 8004a96:	0a2e      	lsrs	r6, r5, #8
 8004a98:	f442 7200 	orr.w	r2, r2, #512	; 0x200
 8004a9c:	60da      	str	r2, [r3, #12]
 8004a9e:	887b      	ldrh	r3, [r7, #2]
 8004aa0:	883c      	ldrh	r4, [r7, #0]
 8004aa2:	b2ed      	uxtb	r5, r5
 8004aa4:	fb04 f403 	mul.w	r4, r4, r3
 8004aa8:	f44f 5340 	mov.w	r3, #12288	; 0x3000
 8004aac:	f2c4 0301 	movt	r3, #16385	; 0x4001
 8004ab0:	2000      	movs	r0, #0
 8004ab2:	b1a4      	cbz	r4, 8004ade <Lcd_Draw_Back_Color+0x82>
 8004ab4:	819e      	strh	r6, [r3, #12]
 8004ab6:	891a      	ldrh	r2, [r3, #8]
 8004ab8:	0797      	lsls	r7, r2, #30
 8004aba:	d5fc      	bpl.n	8004ab6 <Lcd_Draw_Back_Color+0x5a>
 8004abc:	8919      	ldrh	r1, [r3, #8]
 8004abe:	f44f 5240 	mov.w	r2, #12288	; 0x3000
 8004ac2:	0609      	lsls	r1, r1, #24
 8004ac4:	f2c4 0201 	movt	r2, #16385	; 0x4001
 8004ac8:	d4f8      	bmi.n	8004abc <Lcd_Draw_Back_Color+0x60>
 8004aca:	8195      	strh	r5, [r2, #12]
 8004acc:	891a      	ldrh	r2, [r3, #8]
 8004ace:	0792      	lsls	r2, r2, #30
 8004ad0:	d5fc      	bpl.n	8004acc <Lcd_Draw_Back_Color+0x70>
 8004ad2:	891a      	ldrh	r2, [r3, #8]
 8004ad4:	0617      	lsls	r7, r2, #24
 8004ad6:	d4fc      	bmi.n	8004ad2 <Lcd_Draw_Back_Color+0x76>
 8004ad8:	3001      	adds	r0, #1
 8004ada:	42a0      	cmp	r0, r4
 8004adc:	d1ea      	bne.n	8004ab4 <Lcd_Draw_Back_Color+0x58>
 8004ade:	f44f 6300 	mov.w	r3, #2048	; 0x800
 8004ae2:	f2c4 0301 	movt	r3, #16385	; 0x4001
 8004ae6:	68da      	ldr	r2, [r3, #12]
 8004ae8:	f042 0210 	orr.w	r2, r2, #16
 8004aec:	60da      	str	r2, [r3, #12]
 8004aee:	bdf8      	pop	{r3, r4, r5, r6, r7, pc}

08004af0 <Lcd_Clr_Screen>:
 8004af0:	2000      	movs	r0, #0
 8004af2:	f7ff bfb3 	b.w	8004a5c <Lcd_Draw_Back_Color>
 8004af6:	bf00      	nop

08004af8 <Lcd_Draw_Box>:
 8004af8:	e92d 41f0 	stmdb	sp!, {r4, r5, r6, r7, r8, lr}
 8004afc:	440b      	add	r3, r1
 8004afe:	4402      	add	r2, r0
 8004b00:	3a01      	subs	r2, #1
 8004b02:	f103 38ff 	add.w	r8, r3, #4294967295
 8004b06:	f240 133f 	movw	r3, #319	; 0x13f
 8004b0a:	429a      	cmp	r2, r3
 8004b0c:	bfb4      	ite	lt
 8004b0e:	4617      	movlt	r7, r2
 8004b10:	461f      	movge	r7, r3
 8004b12:	f1b8 0fef 	cmp.w	r8, #239	; 0xef
 8004b16:	bfa8      	it	ge
 8004b18:	f04f 08ef 	movge.w	r8, #239	; 0xef
 8004b1c:	4606      	mov	r6, r0
 8004b1e:	460c      	mov	r4, r1
 8004b20:	b2ba      	uxth	r2, r7
 8004b22:	fa1f f388 	uxth.w	r3, r8
 8004b26:	b280      	uxth	r0, r0
 8004b28:	b289      	uxth	r1, r1
 8004b2a:	f8bd 5018 	ldrh.w	r5, [sp, #24]
 8004b2e:	f7ff fbe5 	bl	80042fc <Lcd_Set_Windows>
 8004b32:	f44f 6200 	mov.w	r2, #2048	; 0x800
 8004b36:	f2c4 0201 	movt	r2, #16385	; 0x4001
 8004b3a:	68d1      	ldr	r1, [r2, #12]
 8004b3c:	ebc4 0408 	rsb	r4, r4, r8
 8004b40:	f021 0110 	bic.w	r1, r1, #16
 8004b44:	f44f 6340 	mov.w	r3, #3072	; 0xc00
 8004b48:	f2c4 0301 	movt	r3, #16385	; 0x4001
 8004b4c:	1bbe      	subs	r6, r7, r6
 8004b4e:	60d1      	str	r1, [r2, #12]
 8004b50:	3401      	adds	r4, #1
 8004b52:	68da      	ldr	r2, [r3, #12]
 8004b54:	fb06 4404 	mla	r4, r6, r4, r4
 8004b58:	f442 7200 	orr.w	r2, r2, #512	; 0x200
 8004b5c:	60da      	str	r2, [r3, #12]
 8004b5e:	f44f 5340 	mov.w	r3, #12288	; 0x3000
 8004b62:	0a2e      	lsrs	r6, r5, #8
 8004b64:	f2c4 0301 	movt	r3, #16385	; 0x4001
 8004b68:	b2ed      	uxtb	r5, r5
 8004b6a:	2000      	movs	r0, #0
 8004b6c:	b1a4      	cbz	r4, 8004b98 <Lcd_Draw_Box+0xa0>
 8004b6e:	819e      	strh	r6, [r3, #12]
 8004b70:	891a      	ldrh	r2, [r3, #8]
 8004b72:	0792      	lsls	r2, r2, #30
 8004b74:	d5fc      	bpl.n	8004b70 <Lcd_Draw_Box+0x78>
 8004b76:	8919      	ldrh	r1, [r3, #8]
 8004b78:	f44f 5240 	mov.w	r2, #12288	; 0x3000
 8004b7c:	060f      	lsls	r7, r1, #24
 8004b7e:	f2c4 0201 	movt	r2, #16385	; 0x4001
 8004b82:	d4f8      	bmi.n	8004b76 <Lcd_Draw_Box+0x7e>
 8004b84:	8195      	strh	r5, [r2, #12]
 8004b86:	891a      	ldrh	r2, [r3, #8]
 8004b88:	0791      	lsls	r1, r2, #30
 8004b8a:	d5fc      	bpl.n	8004b86 <Lcd_Draw_Box+0x8e>
 8004b8c:	891a      	ldrh	r2, [r3, #8]
 8004b8e:	0612      	lsls	r2, r2, #24
 8004b90:	d4fc      	bmi.n	8004b8c <Lcd_Draw_Box+0x94>
 8004b92:	3001      	adds	r0, #1
 8004b94:	42a0      	cmp	r0, r4
 8004b96:	d1ea      	bne.n	8004b6e <Lcd_Draw_Box+0x76>
 8004b98:	f44f 6300 	mov.w	r3, #2048	; 0x800
 8004b9c:	f2c4 0301 	movt	r3, #16385	; 0x4001
 8004ba0:	68da      	ldr	r2, [r3, #12]
 8004ba2:	f042 0210 	orr.w	r2, r2, #16
 8004ba6:	60da      	str	r2, [r3, #12]
 8004ba8:	e8bd 81f0 	ldmia.w	sp!, {r4, r5, r6, r7, r8, pc}

08004bac <Lcd_Init>:
 8004bac:	b530      	push	{r4, r5, lr}
 8004bae:	f44f 5280 	mov.w	r2, #4096	; 0x1000
 8004bb2:	f2c4 0202 	movt	r2, #16386	; 0x4002
 8004bb6:	6991      	ldr	r1, [r2, #24]
 8004bb8:	f44f 6300 	mov.w	r3, #2048	; 0x800
 8004bbc:	f041 0104 	orr.w	r1, r1, #4
 8004bc0:	6191      	str	r1, [r2, #24]
 8004bc2:	f2c4 0301 	movt	r3, #16385	; 0x4001
 8004bc6:	6819      	ldr	r1, [r3, #0]
 8004bc8:	f44f 5440 	mov.w	r4, #12288	; 0x3000
 8004bcc:	b289      	uxth	r1, r1
 8004bce:	f041 4134 	orr.w	r1, r1, #3019898880	; 0xb4000000
 8004bd2:	f441 0133 	orr.w	r1, r1, #11730944	; 0xb30000
 8004bd6:	6019      	str	r1, [r3, #0]
 8004bd8:	68d9      	ldr	r1, [r3, #12]
 8004bda:	f2c4 0401 	movt	r4, #16385	; 0x4001
 8004bde:	f041 0110 	orr.w	r1, r1, #16
 8004be2:	60d9      	str	r1, [r3, #12]
 8004be4:	6995      	ldr	r5, [r2, #24]
 8004be6:	f44f 7141 	mov.w	r1, #772	; 0x304
 8004bea:	f445 5580 	orr.w	r5, r5, #4096	; 0x1000
 8004bee:	6195      	str	r5, [r2, #24]
 8004bf0:	8021      	strh	r1, [r4, #0]
 8004bf2:	8822      	ldrh	r2, [r4, #0]
 8004bf4:	f44f 6140 	mov.w	r1, #3072	; 0xc00
 8004bf8:	b292      	uxth	r2, r2
 8004bfa:	f042 0240 	orr.w	r2, r2, #64	; 0x40
 8004bfe:	8022      	strh	r2, [r4, #0]
 8004c00:	681a      	ldr	r2, [r3, #0]
 8004c02:	f2c4 0101 	movt	r1, #16385	; 0x4001
 8004c06:	f422 2270 	bic.w	r2, r2, #983040	; 0xf0000
 8004c0a:	f442 3240 	orr.w	r2, r2, #196608	; 0x30000
 8004c0e:	601a      	str	r2, [r3, #0]
 8004c10:	685a      	ldr	r2, [r3, #4]
 8004c12:	b085      	sub	sp, #20
 8004c14:	f422 4270 	bic.w	r2, r2, #61440	; 0xf000
 8004c18:	f442 5240 	orr.w	r2, r2, #12288	; 0x3000
 8004c1c:	605a      	str	r2, [r3, #4]
 8004c1e:	680d      	ldr	r5, [r1, #0]
 8004c20:	2400      	movs	r4, #0
 8004c22:	f425 2570 	bic.w	r5, r5, #983040	; 0xf0000
 8004c26:	f445 3540 	orr.w	r5, r5, #196608	; 0x30000
 8004c2a:	600d      	str	r5, [r1, #0]
 8004c2c:	684d      	ldr	r5, [r1, #4]
 8004c2e:	f643 72ff 	movw	r2, #16383	; 0x3fff
 8004c32:	f025 05f0 	bic.w	r5, r5, #240	; 0xf0
 8004c36:	f045 0530 	orr.w	r5, r5, #48	; 0x30
 8004c3a:	604d      	str	r5, [r1, #4]
 8004c3c:	68dd      	ldr	r5, [r3, #12]
 8004c3e:	f2c0 0206 	movt	r2, #6
 8004c42:	f425 6500 	bic.w	r5, r5, #2048	; 0x800
 8004c46:	60dd      	str	r5, [r3, #12]
 8004c48:	68cb      	ldr	r3, [r1, #12]
 8004c4a:	f023 0310 	bic.w	r3, r3, #16
 8004c4e:	60cb      	str	r3, [r1, #12]
 8004c50:	9403      	str	r4, [sp, #12]
 8004c52:	9b03      	ldr	r3, [sp, #12]
 8004c54:	4293      	cmp	r3, r2
 8004c56:	dc05      	bgt.n	8004c64 <Lcd_Init+0xb8>
 8004c58:	9b03      	ldr	r3, [sp, #12]
 8004c5a:	3301      	adds	r3, #1
 8004c5c:	9303      	str	r3, [sp, #12]
 8004c5e:	9b03      	ldr	r3, [sp, #12]
 8004c60:	4293      	cmp	r3, r2
 8004c62:	ddf9      	ble.n	8004c58 <Lcd_Init+0xac>
 8004c64:	f44f 6340 	mov.w	r3, #3072	; 0xc00
 8004c68:	f2c4 0301 	movt	r3, #16385	; 0x4001
 8004c6c:	68d9      	ldr	r1, [r3, #12]
 8004c6e:	2200      	movs	r2, #0
 8004c70:	f041 0110 	orr.w	r1, r1, #16
 8004c74:	60d9      	str	r1, [r3, #12]
 8004c76:	9202      	str	r2, [sp, #8]
 8004c78:	9b02      	ldr	r3, [sp, #8]
 8004c7a:	f641 72ff 	movw	r2, #8191	; 0x1fff
 8004c7e:	f2c0 0203 	movt	r2, #3
 8004c82:	4293      	cmp	r3, r2
 8004c84:	dc05      	bgt.n	8004c92 <Lcd_Init+0xe6>
 8004c86:	9b02      	ldr	r3, [sp, #8]
 8004c88:	3301      	adds	r3, #1
 8004c8a:	9302      	str	r3, [sp, #8]
 8004c8c:	9b02      	ldr	r3, [sp, #8]
 8004c8e:	4293      	cmp	r3, r2
 8004c90:	ddf9      	ble.n	8004c86 <Lcd_Init+0xda>
 8004c92:	f44f 6300 	mov.w	r3, #2048	; 0x800
 8004c96:	f2c4 0301 	movt	r3, #16385	; 0x4001
 8004c9a:	68d9      	ldr	r1, [r3, #12]
 8004c9c:	f44f 6240 	mov.w	r2, #3072	; 0xc00
 8004ca0:	f021 0110 	bic.w	r1, r1, #16
 8004ca4:	60d9      	str	r1, [r3, #12]
 8004ca6:	f2c4 0201 	movt	r2, #16385	; 0x4001
 8004caa:	68d4      	ldr	r4, [r2, #12]
 8004cac:	f44f 5340 	mov.w	r3, #12288	; 0x3000
 8004cb0:	f2c4 0301 	movt	r3, #16385	; 0x4001
 8004cb4:	f424 7400 	bic.w	r4, r4, #512	; 0x200
 8004cb8:	21cf      	movs	r1, #207	; 0xcf
 8004cba:	60d4      	str	r4, [r2, #12]
 8004cbc:	461a      	mov	r2, r3
 8004cbe:	8199      	strh	r1, [r3, #12]
 8004cc0:	8913      	ldrh	r3, [r2, #8]
 8004cc2:	079b      	lsls	r3, r3, #30
 8004cc4:	d5fc      	bpl.n	8004cc0 <Lcd_Init+0x114>
 8004cc6:	f44f 5140 	mov.w	r1, #12288	; 0x3000
 8004cca:	f2c4 0101 	movt	r1, #16385	; 0x4001
 8004cce:	890a      	ldrh	r2, [r1, #8]
 8004cd0:	f44f 5340 	mov.w	r3, #12288	; 0x3000
 8004cd4:	f002 0280 	and.w	r2, r2, #128	; 0x80
 8004cd8:	b292      	uxth	r2, r2
 8004cda:	f2c4 0301 	movt	r3, #16385	; 0x4001
 8004cde:	2a00      	cmp	r2, #0
 8004ce0:	d1f5      	bne.n	8004cce <Lcd_Init+0x122>
 8004ce2:	f44f 6100 	mov.w	r1, #2048	; 0x800
 8004ce6:	f2c4 0101 	movt	r1, #16385	; 0x4001
 8004cea:	68cd      	ldr	r5, [r1, #12]
 8004cec:	f44f 6440 	mov.w	r4, #3072	; 0xc00
 8004cf0:	f045 0510 	orr.w	r5, r5, #16
 8004cf4:	60cd      	str	r5, [r1, #12]
 8004cf6:	68cd      	ldr	r5, [r1, #12]
 8004cf8:	f2c4 0401 	movt	r4, #16385	; 0x4001
 8004cfc:	f025 0510 	bic.w	r5, r5, #16
 8004d00:	60cd      	str	r5, [r1, #12]
 8004d02:	68e5      	ldr	r5, [r4, #12]
 8004d04:	4619      	mov	r1, r3
 8004d06:	f445 7500 	orr.w	r5, r5, #512	; 0x200
 8004d0a:	60e5      	str	r5, [r4, #12]
 8004d0c:	819a      	strh	r2, [r3, #12]
 8004d0e:	890b      	ldrh	r3, [r1, #8]
 8004d10:	079d      	lsls	r5, r3, #30
 8004d12:	d5fc      	bpl.n	8004d0e <Lcd_Init+0x162>
 8004d14:	f44f 5140 	mov.w	r1, #12288	; 0x3000
 8004d18:	f2c4 0101 	movt	r1, #16385	; 0x4001
 8004d1c:	890a      	ldrh	r2, [r1, #8]
 8004d1e:	f44f 5340 	mov.w	r3, #12288	; 0x3000
 8004d22:	0614      	lsls	r4, r2, #24
 8004d24:	f2c4 0301 	movt	r3, #16385	; 0x4001
 8004d28:	d4f8      	bmi.n	8004d1c <Lcd_Init+0x170>
 8004d2a:	f44f 6200 	mov.w	r2, #2048	; 0x800
 8004d2e:	f2c4 0201 	movt	r2, #16385	; 0x4001
 8004d32:	68d4      	ldr	r4, [r2, #12]
 8004d34:	f44f 6140 	mov.w	r1, #3072	; 0xc00
 8004d38:	f044 0410 	orr.w	r4, r4, #16
 8004d3c:	60d4      	str	r4, [r2, #12]
 8004d3e:	68d4      	ldr	r4, [r2, #12]
 8004d40:	f2c4 0101 	movt	r1, #16385	; 0x4001
 8004d44:	f024 0410 	bic.w	r4, r4, #16
 8004d48:	60d4      	str	r4, [r2, #12]
 8004d4a:	68ca      	ldr	r2, [r1, #12]
 8004d4c:	24d9      	movs	r4, #217	; 0xd9
 8004d4e:	f442 7200 	orr.w	r2, r2, #512	; 0x200
 8004d52:	60ca      	str	r2, [r1, #12]
 8004d54:	461a      	mov	r2, r3
 8004d56:	819c      	strh	r4, [r3, #12]
 8004d58:	8913      	ldrh	r3, [r2, #8]
 8004d5a:	0799      	lsls	r1, r3, #30
 8004d5c:	d5fc      	bpl.n	8004d58 <Lcd_Init+0x1ac>
 8004d5e:	f44f 5140 	mov.w	r1, #12288	; 0x3000
 8004d62:	f2c4 0101 	movt	r1, #16385	; 0x4001
 8004d66:	890a      	ldrh	r2, [r1, #8]
 8004d68:	f44f 5340 	mov.w	r3, #12288	; 0x3000
 8004d6c:	0612      	lsls	r2, r2, #24
 8004d6e:	f2c4 0301 	movt	r3, #16385	; 0x4001
 8004d72:	d4f8      	bmi.n	8004d66 <Lcd_Init+0x1ba>
 8004d74:	f44f 6200 	mov.w	r2, #2048	; 0x800
 8004d78:	f2c4 0201 	movt	r2, #16385	; 0x4001
 8004d7c:	68d4      	ldr	r4, [r2, #12]
 8004d7e:	f44f 6140 	mov.w	r1, #3072	; 0xc00
 8004d82:	f044 0410 	orr.w	r4, r4, #16
 8004d86:	60d4      	str	r4, [r2, #12]
 8004d88:	68d4      	ldr	r4, [r2, #12]
 8004d8a:	f2c4 0101 	movt	r1, #16385	; 0x4001
 8004d8e:	f024 0410 	bic.w	r4, r4, #16
 8004d92:	60d4      	str	r4, [r2, #12]
 8004d94:	68ca      	ldr	r2, [r1, #12]
 8004d96:	2430      	movs	r4, #48	; 0x30
 8004d98:	f442 7200 	orr.w	r2, r2, #512	; 0x200
 8004d9c:	60ca      	str	r2, [r1, #12]
 8004d9e:	461a      	mov	r2, r3
 8004da0:	819c      	strh	r4, [r3, #12]
 8004da2:	8913      	ldrh	r3, [r2, #8]
 8004da4:	079d      	lsls	r5, r3, #30
 8004da6:	d5fc      	bpl.n	8004da2 <Lcd_Init+0x1f6>
 8004da8:	f44f 5140 	mov.w	r1, #12288	; 0x3000
 8004dac:	f2c4 0101 	movt	r1, #16385	; 0x4001
 8004db0:	890a      	ldrh	r2, [r1, #8]
 8004db2:	f44f 5340 	mov.w	r3, #12288	; 0x3000
 8004db6:	0614      	lsls	r4, r2, #24
 8004db8:	f2c4 0301 	movt	r3, #16385	; 0x4001
 8004dbc:	d4f8      	bmi.n	8004db0 <Lcd_Init+0x204>
 8004dbe:	f44f 6200 	mov.w	r2, #2048	; 0x800
 8004dc2:	f2c4 0201 	movt	r2, #16385	; 0x4001
 8004dc6:	68d4      	ldr	r4, [r2, #12]
 8004dc8:	f44f 6140 	mov.w	r1, #3072	; 0xc00
 8004dcc:	f044 0410 	orr.w	r4, r4, #16
 8004dd0:	60d4      	str	r4, [r2, #12]
 8004dd2:	68d4      	ldr	r4, [r2, #12]
 8004dd4:	f2c4 0101 	movt	r1, #16385	; 0x4001
 8004dd8:	f024 0410 	bic.w	r4, r4, #16
 8004ddc:	60d4      	str	r4, [r2, #12]
 8004dde:	68ca      	ldr	r2, [r1, #12]
 8004de0:	24ed      	movs	r4, #237	; 0xed
 8004de2:	f422 7200 	bic.w	r2, r2, #512	; 0x200
 8004de6:	60ca      	str	r2, [r1, #12]
 8004de8:	461a      	mov	r2, r3
 8004dea:	819c      	strh	r4, [r3, #12]
 8004dec:	8913      	ldrh	r3, [r2, #8]
 8004dee:	0799      	lsls	r1, r3, #30
 8004df0:	d5fc      	bpl.n	8004dec <Lcd_Init+0x240>
 8004df2:	f44f 5140 	mov.w	r1, #12288	; 0x3000
 8004df6:	f2c4 0101 	movt	r1, #16385	; 0x4001
 8004dfa:	890a      	ldrh	r2, [r1, #8]
 8004dfc:	f44f 5340 	mov.w	r3, #12288	; 0x3000
 8004e00:	0612      	lsls	r2, r2, #24
 8004e02:	f2c4 0301 	movt	r3, #16385	; 0x4001
 8004e06:	d4f8      	bmi.n	8004dfa <Lcd_Init+0x24e>
 8004e08:	f44f 6200 	mov.w	r2, #2048	; 0x800
 8004e0c:	f2c4 0201 	movt	r2, #16385	; 0x4001
 8004e10:	68d4      	ldr	r4, [r2, #12]
 8004e12:	f44f 6140 	mov.w	r1, #3072	; 0xc00
 8004e16:	f044 0410 	orr.w	r4, r4, #16
 8004e1a:	60d4      	str	r4, [r2, #12]
 8004e1c:	68d4      	ldr	r4, [r2, #12]
 8004e1e:	f2c4 0101 	movt	r1, #16385	; 0x4001
 8004e22:	f024 0410 	bic.w	r4, r4, #16
 8004e26:	60d4      	str	r4, [r2, #12]
 8004e28:	68ca      	ldr	r2, [r1, #12]
 8004e2a:	2464      	movs	r4, #100	; 0x64
 8004e2c:	f442 7200 	orr.w	r2, r2, #512	; 0x200
 8004e30:	60ca      	str	r2, [r1, #12]
 8004e32:	461a      	mov	r2, r3
 8004e34:	819c      	strh	r4, [r3, #12]
 8004e36:	8913      	ldrh	r3, [r2, #8]
 8004e38:	079d      	lsls	r5, r3, #30
 8004e3a:	d5fc      	bpl.n	8004e36 <Lcd_Init+0x28a>
 8004e3c:	f44f 5140 	mov.w	r1, #12288	; 0x3000
 8004e40:	f2c4 0101 	movt	r1, #16385	; 0x4001
 8004e44:	890a      	ldrh	r2, [r1, #8]
 8004e46:	f44f 5340 	mov.w	r3, #12288	; 0x3000
 8004e4a:	0614      	lsls	r4, r2, #24
 8004e4c:	f2c4 0301 	movt	r3, #16385	; 0x4001
 8004e50:	d4f8      	bmi.n	8004e44 <Lcd_Init+0x298>
 8004e52:	f44f 6200 	mov.w	r2, #2048	; 0x800
 8004e56:	f2c4 0201 	movt	r2, #16385	; 0x4001
 8004e5a:	68d4      	ldr	r4, [r2, #12]
 8004e5c:	f44f 6140 	mov.w	r1, #3072	; 0xc00
 8004e60:	f044 0410 	orr.w	r4, r4, #16
 8004e64:	60d4      	str	r4, [r2, #12]
 8004e66:	68d4      	ldr	r4, [r2, #12]
 8004e68:	f2c4 0101 	movt	r1, #16385	; 0x4001
 8004e6c:	f024 0410 	bic.w	r4, r4, #16
 8004e70:	60d4      	str	r4, [r2, #12]
 8004e72:	68ca      	ldr	r2, [r1, #12]
 8004e74:	2403      	movs	r4, #3
 8004e76:	f442 7200 	orr.w	r2, r2, #512	; 0x200
 8004e7a:	60ca      	str	r2, [r1, #12]
 8004e7c:	461a      	mov	r2, r3
 8004e7e:	819c      	strh	r4, [r3, #12]
 8004e80:	8913      	ldrh	r3, [r2, #8]
 8004e82:	0799      	lsls	r1, r3, #30
 8004e84:	d5fc      	bpl.n	8004e80 <Lcd_Init+0x2d4>
 8004e86:	f44f 5140 	mov.w	r1, #12288	; 0x3000
 8004e8a:	f2c4 0101 	movt	r1, #16385	; 0x4001
 8004e8e:	890a      	ldrh	r2, [r1, #8]
 8004e90:	f44f 5340 	mov.w	r3, #12288	; 0x3000
 8004e94:	0612      	lsls	r2, r2, #24
 8004e96:	f2c4 0301 	movt	r3, #16385	; 0x4001
 8004e9a:	d4f8      	bmi.n	8004e8e <Lcd_Init+0x2e2>
 8004e9c:	f44f 6200 	mov.w	r2, #2048	; 0x800
 8004ea0:	f2c4 0201 	movt	r2, #16385	; 0x4001
 8004ea4:	68d4      	ldr	r4, [r2, #12]
 8004ea6:	f44f 6140 	mov.w	r1, #3072	; 0xc00
 8004eaa:	f044 0410 	orr.w	r4, r4, #16
 8004eae:	60d4      	str	r4, [r2, #12]
 8004eb0:	68d4      	ldr	r4, [r2, #12]
 8004eb2:	f2c4 0101 	movt	r1, #16385	; 0x4001
 8004eb6:	f024 0410 	bic.w	r4, r4, #16
 8004eba:	60d4      	str	r4, [r2, #12]
 8004ebc:	68ca      	ldr	r2, [r1, #12]
 8004ebe:	2412      	movs	r4, #18
 8004ec0:	f442 7200 	orr.w	r2, r2, #512	; 0x200
 8004ec4:	60ca      	str	r2, [r1, #12]
 8004ec6:	461a      	mov	r2, r3
 8004ec8:	819c      	strh	r4, [r3, #12]
 8004eca:	8913      	ldrh	r3, [r2, #8]
 8004ecc:	079d      	lsls	r5, r3, #30
 8004ece:	d5fc      	bpl.n	8004eca <Lcd_Init+0x31e>
 8004ed0:	f44f 5140 	mov.w	r1, #12288	; 0x3000
 8004ed4:	f2c4 0101 	movt	r1, #16385	; 0x4001
 8004ed8:	890a      	ldrh	r2, [r1, #8]
 8004eda:	f44f 5340 	mov.w	r3, #12288	; 0x3000
 8004ede:	0614      	lsls	r4, r2, #24
 8004ee0:	f2c4 0301 	movt	r3, #16385	; 0x4001
 8004ee4:	d4f8      	bmi.n	8004ed8 <Lcd_Init+0x32c>
 8004ee6:	f44f 6200 	mov.w	r2, #2048	; 0x800
 8004eea:	f2c4 0201 	movt	r2, #16385	; 0x4001
 8004eee:	68d4      	ldr	r4, [r2, #12]
 8004ef0:	f44f 6140 	mov.w	r1, #3072	; 0xc00
 8004ef4:	f044 0410 	orr.w	r4, r4, #16
 8004ef8:	60d4      	str	r4, [r2, #12]
 8004efa:	68d4      	ldr	r4, [r2, #12]
 8004efc:	f2c4 0101 	movt	r1, #16385	; 0x4001
 8004f00:	f024 0410 	bic.w	r4, r4, #16
 8004f04:	60d4      	str	r4, [r2, #12]
 8004f06:	68ca      	ldr	r2, [r1, #12]
 8004f08:	2481      	movs	r4, #129	; 0x81
 8004f0a:	f442 7200 	orr.w	r2, r2, #512	; 0x200
 8004f0e:	60ca      	str	r2, [r1, #12]
 8004f10:	461a      	mov	r2, r3
 8004f12:	819c      	strh	r4, [r3, #12]
 8004f14:	8913      	ldrh	r3, [r2, #8]
 8004f16:	0799      	lsls	r1, r3, #30
 8004f18:	d5fc      	bpl.n	8004f14 <Lcd_Init+0x368>
 8004f1a:	f44f 5140 	mov.w	r1, #12288	; 0x3000
 8004f1e:	f2c4 0101 	movt	r1, #16385	; 0x4001
 8004f22:	890a      	ldrh	r2, [r1, #8]
 8004f24:	f44f 5340 	mov.w	r3, #12288	; 0x3000
 8004f28:	0612      	lsls	r2, r2, #24
 8004f2a:	f2c4 0301 	movt	r3, #16385	; 0x4001
 8004f2e:	d4f8      	bmi.n	8004f22 <Lcd_Init+0x376>
 8004f30:	f44f 6200 	mov.w	r2, #2048	; 0x800
 8004f34:	f2c4 0201 	movt	r2, #16385	; 0x4001
 8004f38:	68d4      	ldr	r4, [r2, #12]
 8004f3a:	f44f 6140 	mov.w	r1, #3072	; 0xc00
 8004f3e:	f044 0410 	orr.w	r4, r4, #16
 8004f42:	60d4      	str	r4, [r2, #12]
 8004f44:	68d4      	ldr	r4, [r2, #12]
 8004f46:	f2c4 0101 	movt	r1, #16385	; 0x4001
 8004f4a:	f024 0410 	bic.w	r4, r4, #16
 8004f4e:	60d4      	str	r4, [r2, #12]
 8004f50:	68ca      	ldr	r2, [r1, #12]
 8004f52:	24e8      	movs	r4, #232	; 0xe8
 8004f54:	f422 7200 	bic.w	r2, r2, #512	; 0x200
 8004f58:	60ca      	str	r2, [r1, #12]
 8004f5a:	461a      	mov	r2, r3
 8004f5c:	819c      	strh	r4, [r3, #12]
 8004f5e:	8913      	ldrh	r3, [r2, #8]
 8004f60:	079d      	lsls	r5, r3, #30
 8004f62:	d5fc      	bpl.n	8004f5e <Lcd_Init+0x3b2>
 8004f64:	f44f 5140 	mov.w	r1, #12288	; 0x3000
 8004f68:	f2c4 0101 	movt	r1, #16385	; 0x4001
 8004f6c:	890a      	ldrh	r2, [r1, #8]
 8004f6e:	f44f 5340 	mov.w	r3, #12288	; 0x3000
 8004f72:	0614      	lsls	r4, r2, #24
 8004f74:	f2c4 0301 	movt	r3, #16385	; 0x4001
 8004f78:	d4f8      	bmi.n	8004f6c <Lcd_Init+0x3c0>
 8004f7a:	f44f 6200 	mov.w	r2, #2048	; 0x800
 8004f7e:	f2c4 0201 	movt	r2, #16385	; 0x4001
 8004f82:	68d4      	ldr	r4, [r2, #12]
 8004f84:	f44f 6140 	mov.w	r1, #3072	; 0xc00
 8004f88:	f044 0410 	orr.w	r4, r4, #16
 8004f8c:	60d4      	str	r4, [r2, #12]
 8004f8e:	68d4      	ldr	r4, [r2, #12]
 8004f90:	f2c4 0101 	movt	r1, #16385	; 0x4001
 8004f94:	f024 0410 	bic.w	r4, r4, #16
 8004f98:	60d4      	str	r4, [r2, #12]
 8004f9a:	68ca      	ldr	r2, [r1, #12]
 8004f9c:	2485      	movs	r4, #133	; 0x85
 8004f9e:	f442 7200 	orr.w	r2, r2, #512	; 0x200
 8004fa2:	60ca      	str	r2, [r1, #12]
 8004fa4:	461a      	mov	r2, r3
 8004fa6:	819c      	strh	r4, [r3, #12]
 8004fa8:	8913      	ldrh	r3, [r2, #8]
 8004faa:	0799      	lsls	r1, r3, #30
 8004fac:	d5fc      	bpl.n	8004fa8 <Lcd_Init+0x3fc>
 8004fae:	f44f 5140 	mov.w	r1, #12288	; 0x3000
 8004fb2:	f2c4 0101 	movt	r1, #16385	; 0x4001
 8004fb6:	890a      	ldrh	r2, [r1, #8]
 8004fb8:	f44f 5340 	mov.w	r3, #12288	; 0x3000
 8004fbc:	0612      	lsls	r2, r2, #24
 8004fbe:	f2c4 0301 	movt	r3, #16385	; 0x4001
 8004fc2:	d4f8      	bmi.n	8004fb6 <Lcd_Init+0x40a>
 8004fc4:	f44f 6200 	mov.w	r2, #2048	; 0x800
 8004fc8:	f2c4 0201 	movt	r2, #16385	; 0x4001
 8004fcc:	68d4      	ldr	r4, [r2, #12]
 8004fce:	f44f 6140 	mov.w	r1, #3072	; 0xc00
 8004fd2:	f044 0410 	orr.w	r4, r4, #16
 8004fd6:	60d4      	str	r4, [r2, #12]
 8004fd8:	68d4      	ldr	r4, [r2, #12]
 8004fda:	f2c4 0101 	movt	r1, #16385	; 0x4001
 8004fde:	f024 0410 	bic.w	r4, r4, #16
 8004fe2:	60d4      	str	r4, [r2, #12]
 8004fe4:	68ca      	ldr	r2, [r1, #12]
 8004fe6:	2410      	movs	r4, #16
 8004fe8:	f442 7200 	orr.w	r2, r2, #512	; 0x200
 8004fec:	60ca      	str	r2, [r1, #12]
 8004fee:	461a      	mov	r2, r3
 8004ff0:	819c      	strh	r4, [r3, #12]
 8004ff2:	8913      	ldrh	r3, [r2, #8]
 8004ff4:	079d      	lsls	r5, r3, #30
 8004ff6:	d5fc      	bpl.n	8004ff2 <Lcd_Init+0x446>
 8004ff8:	f44f 5140 	mov.w	r1, #12288	; 0x3000
 8004ffc:	f2c4 0101 	movt	r1, #16385	; 0x4001
 8005000:	890a      	ldrh	r2, [r1, #8]
 8005002:	f44f 5340 	mov.w	r3, #12288	; 0x3000
 8005006:	0614      	lsls	r4, r2, #24
 8005008:	f2c4 0301 	movt	r3, #16385	; 0x4001
 800500c:	d4f8      	bmi.n	8005000 <Lcd_Init+0x454>
 800500e:	f44f 6200 	mov.w	r2, #2048	; 0x800
 8005012:	f2c4 0201 	movt	r2, #16385	; 0x4001
 8005016:	68d4      	ldr	r4, [r2, #12]
 8005018:	f44f 6140 	mov.w	r1, #3072	; 0xc00
 800501c:	f044 0410 	orr.w	r4, r4, #16
 8005020:	60d4      	str	r4, [r2, #12]
 8005022:	68d4      	ldr	r4, [r2, #12]
 8005024:	f2c4 0101 	movt	r1, #16385	; 0x4001
 8005028:	f024 0410 	bic.w	r4, r4, #16
 800502c:	60d4      	str	r4, [r2, #12]
 800502e:	68ca      	ldr	r2, [r1, #12]
 8005030:	247a      	movs	r4, #122	; 0x7a
 8005032:	f442 7200 	orr.w	r2, r2, #512	; 0x200
 8005036:	60ca      	str	r2, [r1, #12]
 8005038:	461a      	mov	r2, r3
 800503a:	819c      	strh	r4, [r3, #12]
 800503c:	8913      	ldrh	r3, [r2, #8]
 800503e:	0799      	lsls	r1, r3, #30
 8005040:	d5fc      	bpl.n	800503c <Lcd_Init+0x490>
 8005042:	f44f 5140 	mov.w	r1, #12288	; 0x3000
 8005046:	f2c4 0101 	movt	r1, #16385	; 0x4001
 800504a:	890a      	ldrh	r2, [r1, #8]
 800504c:	f44f 5340 	mov.w	r3, #12288	; 0x3000
 8005050:	0612      	lsls	r2, r2, #24
 8005052:	f2c4 0301 	movt	r3, #16385	; 0x4001
 8005056:	d4f8      	bmi.n	800504a <Lcd_Init+0x49e>
 8005058:	f44f 6200 	mov.w	r2, #2048	; 0x800
 800505c:	f2c4 0201 	movt	r2, #16385	; 0x4001
 8005060:	68d4      	ldr	r4, [r2, #12]
 8005062:	f44f 6140 	mov.w	r1, #3072	; 0xc00
 8005066:	f044 0410 	orr.w	r4, r4, #16
 800506a:	60d4      	str	r4, [r2, #12]
 800506c:	68d4      	ldr	r4, [r2, #12]
 800506e:	f2c4 0101 	movt	r1, #16385	; 0x4001
 8005072:	f024 0410 	bic.w	r4, r4, #16
 8005076:	60d4      	str	r4, [r2, #12]
 8005078:	68ca      	ldr	r2, [r1, #12]
 800507a:	24cb      	movs	r4, #203	; 0xcb
 800507c:	f422 7200 	bic.w	r2, r2, #512	; 0x200
 8005080:	60ca      	str	r2, [r1, #12]
 8005082:	461a      	mov	r2, r3
 8005084:	819c      	strh	r4, [r3, #12]
 8005086:	8913      	ldrh	r3, [r2, #8]
 8005088:	079d      	lsls	r5, r3, #30
 800508a:	d5fc      	bpl.n	8005086 <Lcd_Init+0x4da>
 800508c:	f44f 5140 	mov.w	r1, #12288	; 0x3000
 8005090:	f2c4 0101 	movt	r1, #16385	; 0x4001
 8005094:	890a      	ldrh	r2, [r1, #8]
 8005096:	f44f 5340 	mov.w	r3, #12288	; 0x3000
 800509a:	0614      	lsls	r4, r2, #24
 800509c:	f2c4 0301 	movt	r3, #16385	; 0x4001
 80050a0:	d4f8      	bmi.n	8005094 <Lcd_Init+0x4e8>
 80050a2:	f44f 6200 	mov.w	r2, #2048	; 0x800
 80050a6:	f2c4 0201 	movt	r2, #16385	; 0x4001
 80050aa:	68d4      	ldr	r4, [r2, #12]
 80050ac:	f44f 6140 	mov.w	r1, #3072	; 0xc00
 80050b0:	f044 0410 	orr.w	r4, r4, #16
 80050b4:	60d4      	str	r4, [r2, #12]
 80050b6:	68d4      	ldr	r4, [r2, #12]
 80050b8:	f2c4 0101 	movt	r1, #16385	; 0x4001
 80050bc:	f024 0410 	bic.w	r4, r4, #16
 80050c0:	60d4      	str	r4, [r2, #12]
 80050c2:	68ca      	ldr	r2, [r1, #12]
 80050c4:	2439      	movs	r4, #57	; 0x39
 80050c6:	f442 7200 	orr.w	r2, r2, #512	; 0x200
 80050ca:	60ca      	str	r2, [r1, #12]
 80050cc:	461a      	mov	r2, r3
 80050ce:	819c      	strh	r4, [r3, #12]
 80050d0:	8913      	ldrh	r3, [r2, #8]
 80050d2:	0799      	lsls	r1, r3, #30
 80050d4:	d5fc      	bpl.n	80050d0 <Lcd_Init+0x524>
 80050d6:	f44f 5140 	mov.w	r1, #12288	; 0x3000
 80050da:	f2c4 0101 	movt	r1, #16385	; 0x4001
 80050de:	890a      	ldrh	r2, [r1, #8]
 80050e0:	f44f 5340 	mov.w	r3, #12288	; 0x3000
 80050e4:	0612      	lsls	r2, r2, #24
 80050e6:	f2c4 0301 	movt	r3, #16385	; 0x4001
 80050ea:	d4f8      	bmi.n	80050de <Lcd_Init+0x532>
 80050ec:	f44f 6200 	mov.w	r2, #2048	; 0x800
 80050f0:	f2c4 0201 	movt	r2, #16385	; 0x4001
 80050f4:	68d4      	ldr	r4, [r2, #12]
 80050f6:	f44f 6140 	mov.w	r1, #3072	; 0xc00
 80050fa:	f044 0410 	orr.w	r4, r4, #16
 80050fe:	60d4      	str	r4, [r2, #12]
 8005100:	68d4      	ldr	r4, [r2, #12]
 8005102:	f2c4 0101 	movt	r1, #16385	; 0x4001
 8005106:	f024 0410 	bic.w	r4, r4, #16
 800510a:	60d4      	str	r4, [r2, #12]
 800510c:	68ca      	ldr	r2, [r1, #12]
 800510e:	242c      	movs	r4, #44	; 0x2c
 8005110:	f442 7200 	orr.w	r2, r2, #512	; 0x200
 8005114:	60ca      	str	r2, [r1, #12]
 8005116:	461a      	mov	r2, r3
 8005118:	819c      	strh	r4, [r3, #12]
 800511a:	8913      	ldrh	r3, [r2, #8]
 800511c:	079b      	lsls	r3, r3, #30
 800511e:	d5fc      	bpl.n	800511a <Lcd_Init+0x56e>
 8005120:	f44f 5140 	mov.w	r1, #12288	; 0x3000
 8005124:	f2c4 0101 	movt	r1, #16385	; 0x4001
 8005128:	890a      	ldrh	r2, [r1, #8]
 800512a:	f44f 5340 	mov.w	r3, #12288	; 0x3000
 800512e:	f002 0280 	and.w	r2, r2, #128	; 0x80
 8005132:	b292      	uxth	r2, r2
 8005134:	f2c4 0301 	movt	r3, #16385	; 0x4001
 8005138:	2a00      	cmp	r2, #0
 800513a:	d1f5      	bne.n	8005128 <Lcd_Init+0x57c>
 800513c:	f44f 6100 	mov.w	r1, #2048	; 0x800
 8005140:	f2c4 0101 	movt	r1, #16385	; 0x4001
 8005144:	68cd      	ldr	r5, [r1, #12]
 8005146:	f44f 6440 	mov.w	r4, #3072	; 0xc00
 800514a:	f045 0510 	orr.w	r5, r5, #16
 800514e:	60cd      	str	r5, [r1, #12]
 8005150:	68cd      	ldr	r5, [r1, #12]
 8005152:	f2c4 0401 	movt	r4, #16385	; 0x4001
 8005156:	f025 0510 	bic.w	r5, r5, #16
 800515a:	60cd      	str	r5, [r1, #12]
 800515c:	68e5      	ldr	r5, [r4, #12]
 800515e:	4619      	mov	r1, r3
 8005160:	f445 7500 	orr.w	r5, r5, #512	; 0x200
 8005164:	60e5      	str	r5, [r4, #12]
 8005166:	819a      	strh	r2, [r3, #12]
 8005168:	890b      	ldrh	r3, [r1, #8]
 800516a:	079d      	lsls	r5, r3, #30
 800516c:	d5fc      	bpl.n	8005168 <Lcd_Init+0x5bc>
 800516e:	f44f 5140 	mov.w	r1, #12288	; 0x3000
 8005172:	f2c4 0101 	movt	r1, #16385	; 0x4001
 8005176:	890a      	ldrh	r2, [r1, #8]
 8005178:	f44f 5340 	mov.w	r3, #12288	; 0x3000
 800517c:	0614      	lsls	r4, r2, #24
 800517e:	f2c4 0301 	movt	r3, #16385	; 0x4001
 8005182:	d4f8      	bmi.n	8005176 <Lcd_Init+0x5ca>
 8005184:	f44f 6200 	mov.w	r2, #2048	; 0x800
 8005188:	f2c4 0201 	movt	r2, #16385	; 0x4001
 800518c:	68d4      	ldr	r4, [r2, #12]
 800518e:	f44f 6140 	mov.w	r1, #3072	; 0xc00
 8005192:	f044 0410 	orr.w	r4, r4, #16
 8005196:	60d4      	str	r4, [r2, #12]
 8005198:	68d4      	ldr	r4, [r2, #12]
 800519a:	f2c4 0101 	movt	r1, #16385	; 0x4001
 800519e:	f024 0410 	bic.w	r4, r4, #16
 80051a2:	60d4      	str	r4, [r2, #12]
 80051a4:	68ca      	ldr	r2, [r1, #12]
 80051a6:	2434      	movs	r4, #52	; 0x34
 80051a8:	f442 7200 	orr.w	r2, r2, #512	; 0x200
 80051ac:	60ca      	str	r2, [r1, #12]
 80051ae:	461a      	mov	r2, r3
 80051b0:	819c      	strh	r4, [r3, #12]
 80051b2:	8913      	ldrh	r3, [r2, #8]
 80051b4:	0799      	lsls	r1, r3, #30
 80051b6:	d5fc      	bpl.n	80051b2 <Lcd_Init+0x606>
 80051b8:	f44f 5140 	mov.w	r1, #12288	; 0x3000
 80051bc:	f2c4 0101 	movt	r1, #16385	; 0x4001
 80051c0:	890a      	ldrh	r2, [r1, #8]
 80051c2:	f44f 5340 	mov.w	r3, #12288	; 0x3000
 80051c6:	0612      	lsls	r2, r2, #24
 80051c8:	f2c4 0301 	movt	r3, #16385	; 0x4001
 80051cc:	d4f8      	bmi.n	80051c0 <Lcd_Init+0x614>
 80051ce:	f44f 6200 	mov.w	r2, #2048	; 0x800
 80051d2:	f2c4 0201 	movt	r2, #16385	; 0x4001
 80051d6:	68d4      	ldr	r4, [r2, #12]
 80051d8:	f44f 6140 	mov.w	r1, #3072	; 0xc00
 80051dc:	f044 0410 	orr.w	r4, r4, #16
 80051e0:	60d4      	str	r4, [r2, #12]
 80051e2:	68d4      	ldr	r4, [r2, #12]
 80051e4:	f2c4 0101 	movt	r1, #16385	; 0x4001
 80051e8:	f024 0410 	bic.w	r4, r4, #16
 80051ec:	60d4      	str	r4, [r2, #12]
 80051ee:	68ca      	ldr	r2, [r1, #12]
 80051f0:	2402      	movs	r4, #2
 80051f2:	f442 7200 	orr.w	r2, r2, #512	; 0x200
 80051f6:	60ca      	str	r2, [r1, #12]
 80051f8:	461a      	mov	r2, r3
 80051fa:	819c      	strh	r4, [r3, #12]
 80051fc:	8913      	ldrh	r3, [r2, #8]
 80051fe:	079d      	lsls	r5, r3, #30
 8005200:	d5fc      	bpl.n	80051fc <Lcd_Init+0x650>
 8005202:	f44f 5140 	mov.w	r1, #12288	; 0x3000
 8005206:	f2c4 0101 	movt	r1, #16385	; 0x4001
 800520a:	890a      	ldrh	r2, [r1, #8]
 800520c:	f44f 5340 	mov.w	r3, #12288	; 0x3000
 8005210:	0614      	lsls	r4, r2, #24
 8005212:	f2c4 0301 	movt	r3, #16385	; 0x4001
 8005216:	d4f8      	bmi.n	800520a <Lcd_Init+0x65e>
 8005218:	f44f 6200 	mov.w	r2, #2048	; 0x800
 800521c:	f2c4 0201 	movt	r2, #16385	; 0x4001
 8005220:	68d4      	ldr	r4, [r2, #12]
 8005222:	f44f 6140 	mov.w	r1, #3072	; 0xc00
 8005226:	f044 0410 	orr.w	r4, r4, #16
 800522a:	60d4      	str	r4, [r2, #12]
 800522c:	68d4      	ldr	r4, [r2, #12]
 800522e:	f2c4 0101 	movt	r1, #16385	; 0x4001
 8005232:	f024 0410 	bic.w	r4, r4, #16
 8005236:	60d4      	str	r4, [r2, #12]
 8005238:	68ca      	ldr	r2, [r1, #12]
 800523a:	24f7      	movs	r4, #247	; 0xf7
 800523c:	f422 7200 	bic.w	r2, r2, #512	; 0x200
 8005240:	60ca      	str	r2, [r1, #12]
 8005242:	461a      	mov	r2, r3
 8005244:	819c      	strh	r4, [r3, #12]
 8005246:	8913      	ldrh	r3, [r2, #8]
 8005248:	0799      	lsls	r1, r3, #30
 800524a:	d5fc      	bpl.n	8005246 <Lcd_Init+0x69a>
 800524c:	f44f 5140 	mov.w	r1, #12288	; 0x3000
 8005250:	f2c4 0101 	movt	r1, #16385	; 0x4001
 8005254:	890a      	ldrh	r2, [r1, #8]
 8005256:	f44f 5340 	mov.w	r3, #12288	; 0x3000
 800525a:	0612      	lsls	r2, r2, #24
 800525c:	f2c4 0301 	movt	r3, #16385	; 0x4001
 8005260:	d4f8      	bmi.n	8005254 <Lcd_Init+0x6a8>
 8005262:	f44f 6200 	mov.w	r2, #2048	; 0x800
 8005266:	f2c4 0201 	movt	r2, #16385	; 0x4001
 800526a:	68d4      	ldr	r4, [r2, #12]
 800526c:	f44f 6140 	mov.w	r1, #3072	; 0xc00
 8005270:	f044 0410 	orr.w	r4, r4, #16
 8005274:	60d4      	str	r4, [r2, #12]
 8005276:	68d4      	ldr	r4, [r2, #12]
 8005278:	f2c4 0101 	movt	r1, #16385	; 0x4001
 800527c:	f024 0410 	bic.w	r4, r4, #16
 8005280:	60d4      	str	r4, [r2, #12]
 8005282:	68ca      	ldr	r2, [r1, #12]
 8005284:	2420      	movs	r4, #32
 8005286:	f442 7200 	orr.w	r2, r2, #512	; 0x200
 800528a:	60ca      	str	r2, [r1, #12]
 800528c:	461a      	mov	r2, r3
 800528e:	819c      	strh	r4, [r3, #12]
 8005290:	8913      	ldrh	r3, [r2, #8]
 8005292:	079d      	lsls	r5, r3, #30
 8005294:	d5fc      	bpl.n	8005290 <Lcd_Init+0x6e4>
 8005296:	f44f 5140 	mov.w	r1, #12288	; 0x3000
 800529a:	f2c4 0101 	movt	r1, #16385	; 0x4001
 800529e:	890a      	ldrh	r2, [r1, #8]
 80052a0:	f44f 5340 	mov.w	r3, #12288	; 0x3000
 80052a4:	0614      	lsls	r4, r2, #24
 80052a6:	f2c4 0301 	movt	r3, #16385	; 0x4001
 80052aa:	d4f8      	bmi.n	800529e <Lcd_Init+0x6f2>
 80052ac:	f44f 6200 	mov.w	r2, #2048	; 0x800
 80052b0:	f2c4 0201 	movt	r2, #16385	; 0x4001
 80052b4:	68d4      	ldr	r4, [r2, #12]
 80052b6:	f44f 6140 	mov.w	r1, #3072	; 0xc00
 80052ba:	f044 0410 	orr.w	r4, r4, #16
 80052be:	60d4      	str	r4, [r2, #12]
 80052c0:	68d4      	ldr	r4, [r2, #12]
 80052c2:	f2c4 0101 	movt	r1, #16385	; 0x4001
 80052c6:	f024 0410 	bic.w	r4, r4, #16
 80052ca:	60d4      	str	r4, [r2, #12]
 80052cc:	68ca      	ldr	r2, [r1, #12]
 80052ce:	24ea      	movs	r4, #234	; 0xea
 80052d0:	f422 7200 	bic.w	r2, r2, #512	; 0x200
 80052d4:	60ca      	str	r2, [r1, #12]
 80052d6:	461a      	mov	r2, r3
 80052d8:	819c      	strh	r4, [r3, #12]
 80052da:	8913      	ldrh	r3, [r2, #8]
 80052dc:	0799      	lsls	r1, r3, #30
 80052de:	d5fc      	bpl.n	80052da <Lcd_Init+0x72e>
 80052e0:	f44f 5140 	mov.w	r1, #12288	; 0x3000
 80052e4:	f2c4 0101 	movt	r1, #16385	; 0x4001
 80052e8:	890a      	ldrh	r2, [r1, #8]
 80052ea:	f44f 5340 	mov.w	r3, #12288	; 0x3000
 80052ee:	f002 0280 	and.w	r2, r2, #128	; 0x80
 80052f2:	b292      	uxth	r2, r2
 80052f4:	f2c4 0301 	movt	r3, #16385	; 0x4001
 80052f8:	2a00      	cmp	r2, #0
 80052fa:	d1f5      	bne.n	80052e8 <Lcd_Init+0x73c>
 80052fc:	f44f 6100 	mov.w	r1, #2048	; 0x800
 8005300:	f2c4 0101 	movt	r1, #16385	; 0x4001
 8005304:	68cd      	ldr	r5, [r1, #12]
 8005306:	f44f 6440 	mov.w	r4, #3072	; 0xc00
 800530a:	f045 0510 	orr.w	r5, r5, #16
 800530e:	60cd      	str	r5, [r1, #12]
 8005310:	68cd      	ldr	r5, [r1, #12]
 8005312:	f2c4 0401 	movt	r4, #16385	; 0x4001
 8005316:	f025 0510 	bic.w	r5, r5, #16
 800531a:	60cd      	str	r5, [r1, #12]
 800531c:	68e5      	ldr	r5, [r4, #12]
 800531e:	4619      	mov	r1, r3
 8005320:	f445 7500 	orr.w	r5, r5, #512	; 0x200
 8005324:	60e5      	str	r5, [r4, #12]
 8005326:	819a      	strh	r2, [r3, #12]
 8005328:	890b      	ldrh	r3, [r1, #8]
 800532a:	079b      	lsls	r3, r3, #30
 800532c:	d5fc      	bpl.n	8005328 <Lcd_Init+0x77c>
 800532e:	f44f 5140 	mov.w	r1, #12288	; 0x3000
 8005332:	f2c4 0101 	movt	r1, #16385	; 0x4001
 8005336:	890a      	ldrh	r2, [r1, #8]
 8005338:	f44f 5340 	mov.w	r3, #12288	; 0x3000
 800533c:	f002 0280 	and.w	r2, r2, #128	; 0x80
 8005340:	b292      	uxth	r2, r2
 8005342:	f2c4 0301 	movt	r3, #16385	; 0x4001
 8005346:	2a00      	cmp	r2, #0
 8005348:	d1f5      	bne.n	8005336 <Lcd_Init+0x78a>
 800534a:	f44f 6100 	mov.w	r1, #2048	; 0x800
 800534e:	f2c4 0101 	movt	r1, #16385	; 0x4001
 8005352:	68cd      	ldr	r5, [r1, #12]
 8005354:	f44f 6440 	mov.w	r4, #3072	; 0xc00
 8005358:	f045 0510 	orr.w	r5, r5, #16
 800535c:	60cd      	str	r5, [r1, #12]
 800535e:	68cd      	ldr	r5, [r1, #12]
 8005360:	f2c4 0401 	movt	r4, #16385	; 0x4001
 8005364:	f025 0510 	bic.w	r5, r5, #16
 8005368:	60cd      	str	r5, [r1, #12]
 800536a:	68e5      	ldr	r5, [r4, #12]
 800536c:	4619      	mov	r1, r3
 800536e:	f445 7500 	orr.w	r5, r5, #512	; 0x200
 8005372:	60e5      	str	r5, [r4, #12]
 8005374:	819a      	strh	r2, [r3, #12]
 8005376:	890b      	ldrh	r3, [r1, #8]
 8005378:	079d      	lsls	r5, r3, #30
 800537a:	d5fc      	bpl.n	8005376 <Lcd_Init+0x7ca>
 800537c:	f44f 5140 	mov.w	r1, #12288	; 0x3000
 8005380:	f2c4 0101 	movt	r1, #16385	; 0x4001
 8005384:	890a      	ldrh	r2, [r1, #8]
 8005386:	f44f 5340 	mov.w	r3, #12288	; 0x3000
 800538a:	0614      	lsls	r4, r2, #24
 800538c:	f2c4 0301 	movt	r3, #16385	; 0x4001
 8005390:	d4f8      	bmi.n	8005384 <Lcd_Init+0x7d8>
 8005392:	f44f 6200 	mov.w	r2, #2048	; 0x800
 8005396:	f2c4 0201 	movt	r2, #16385	; 0x4001
 800539a:	68d4      	ldr	r4, [r2, #12]
 800539c:	f44f 6140 	mov.w	r1, #3072	; 0xc00
 80053a0:	f044 0410 	orr.w	r4, r4, #16
 80053a4:	60d4      	str	r4, [r2, #12]
 80053a6:	68d4      	ldr	r4, [r2, #12]
 80053a8:	f2c4 0101 	movt	r1, #16385	; 0x4001
 80053ac:	f024 0410 	bic.w	r4, r4, #16
 80053b0:	60d4      	str	r4, [r2, #12]
 80053b2:	68ca      	ldr	r2, [r1, #12]
 80053b4:	24c0      	movs	r4, #192	; 0xc0
 80053b6:	f422 7200 	bic.w	r2, r2, #512	; 0x200
 80053ba:	60ca      	str	r2, [r1, #12]
 80053bc:	461a      	mov	r2, r3
 80053be:	819c      	strh	r4, [r3, #12]
 80053c0:	8913      	ldrh	r3, [r2, #8]
 80053c2:	0799      	lsls	r1, r3, #30
 80053c4:	d5fc      	bpl.n	80053c0 <Lcd_Init+0x814>
 80053c6:	f44f 5140 	mov.w	r1, #12288	; 0x3000
 80053ca:	f2c4 0101 	movt	r1, #16385	; 0x4001
 80053ce:	890a      	ldrh	r2, [r1, #8]
 80053d0:	f44f 5340 	mov.w	r3, #12288	; 0x3000
 80053d4:	0612      	lsls	r2, r2, #24
 80053d6:	f2c4 0301 	movt	r3, #16385	; 0x4001
 80053da:	d4f8      	bmi.n	80053ce <Lcd_Init+0x822>
 80053dc:	f44f 6200 	mov.w	r2, #2048	; 0x800
 80053e0:	f2c4 0201 	movt	r2, #16385	; 0x4001
 80053e4:	68d4      	ldr	r4, [r2, #12]
 80053e6:	f44f 6140 	mov.w	r1, #3072	; 0xc00
 80053ea:	f044 0410 	orr.w	r4, r4, #16
 80053ee:	60d4      	str	r4, [r2, #12]
 80053f0:	68d4      	ldr	r4, [r2, #12]
 80053f2:	f2c4 0101 	movt	r1, #16385	; 0x4001
 80053f6:	f024 0410 	bic.w	r4, r4, #16
 80053fa:	60d4      	str	r4, [r2, #12]
 80053fc:	68ca      	ldr	r2, [r1, #12]
 80053fe:	2408      	movs	r4, #8
 8005400:	f442 7200 	orr.w	r2, r2, #512	; 0x200
 8005404:	60ca      	str	r2, [r1, #12]
 8005406:	461a      	mov	r2, r3
 8005408:	819c      	strh	r4, [r3, #12]
 800540a:	8913      	ldrh	r3, [r2, #8]
 800540c:	079d      	lsls	r5, r3, #30
 800540e:	d5fc      	bpl.n	800540a <Lcd_Init+0x85e>
 8005410:	f44f 5140 	mov.w	r1, #12288	; 0x3000
 8005414:	f2c4 0101 	movt	r1, #16385	; 0x4001
 8005418:	890a      	ldrh	r2, [r1, #8]
 800541a:	f44f 5340 	mov.w	r3, #12288	; 0x3000
 800541e:	0614      	lsls	r4, r2, #24
 8005420:	f2c4 0301 	movt	r3, #16385	; 0x4001
 8005424:	d4f8      	bmi.n	8005418 <Lcd_Init+0x86c>
 8005426:	f44f 6200 	mov.w	r2, #2048	; 0x800
 800542a:	f2c4 0201 	movt	r2, #16385	; 0x4001
 800542e:	68d4      	ldr	r4, [r2, #12]
 8005430:	f44f 6140 	mov.w	r1, #3072	; 0xc00
 8005434:	f044 0410 	orr.w	r4, r4, #16
 8005438:	60d4      	str	r4, [r2, #12]
 800543a:	68d4      	ldr	r4, [r2, #12]
 800543c:	f2c4 0101 	movt	r1, #16385	; 0x4001
 8005440:	f024 0410 	bic.w	r4, r4, #16
 8005444:	60d4      	str	r4, [r2, #12]
 8005446:	68ca      	ldr	r2, [r1, #12]
 8005448:	24c1      	movs	r4, #193	; 0xc1
 800544a:	f422 7200 	bic.w	r2, r2, #512	; 0x200
 800544e:	60ca      	str	r2, [r1, #12]
 8005450:	461a      	mov	r2, r3
 8005452:	819c      	strh	r4, [r3, #12]
 8005454:	8913      	ldrh	r3, [r2, #8]
 8005456:	0799      	lsls	r1, r3, #30
 8005458:	d5fc      	bpl.n	8005454 <Lcd_Init+0x8a8>
 800545a:	f44f 5140 	mov.w	r1, #12288	; 0x3000
 800545e:	f2c4 0101 	movt	r1, #16385	; 0x4001
 8005462:	890a      	ldrh	r2, [r1, #8]
 8005464:	f44f 5340 	mov.w	r3, #12288	; 0x3000
 8005468:	0612      	lsls	r2, r2, #24
 800546a:	f2c4 0301 	movt	r3, #16385	; 0x4001
 800546e:	d4f8      	bmi.n	8005462 <Lcd_Init+0x8b6>
 8005470:	f44f 6200 	mov.w	r2, #2048	; 0x800
 8005474:	f2c4 0201 	movt	r2, #16385	; 0x4001
 8005478:	68d4      	ldr	r4, [r2, #12]
 800547a:	f44f 6140 	mov.w	r1, #3072	; 0xc00
 800547e:	f044 0410 	orr.w	r4, r4, #16
 8005482:	60d4      	str	r4, [r2, #12]
 8005484:	68d4      	ldr	r4, [r2, #12]
 8005486:	f2c4 0101 	movt	r1, #16385	; 0x4001
 800548a:	f024 0410 	bic.w	r4, r4, #16
 800548e:	60d4      	str	r4, [r2, #12]
 8005490:	68ca      	ldr	r2, [r1, #12]
 8005492:	2412      	movs	r4, #18
 8005494:	f442 7200 	orr.w	r2, r2, #512	; 0x200
 8005498:	60ca      	str	r2, [r1, #12]
 800549a:	461a      	mov	r2, r3
 800549c:	819c      	strh	r4, [r3, #12]
 800549e:	8913      	ldrh	r3, [r2, #8]
 80054a0:	079d      	lsls	r5, r3, #30
 80054a2:	d5fc      	bpl.n	800549e <Lcd_Init+0x8f2>
 80054a4:	f44f 5140 	mov.w	r1, #12288	; 0x3000
 80054a8:	f2c4 0101 	movt	r1, #16385	; 0x4001
 80054ac:	890a      	ldrh	r2, [r1, #8]
 80054ae:	f44f 5340 	mov.w	r3, #12288	; 0x3000
 80054b2:	0614      	lsls	r4, r2, #24
 80054b4:	f2c4 0301 	movt	r3, #16385	; 0x4001
 80054b8:	d4f8      	bmi.n	80054ac <Lcd_Init+0x900>
 80054ba:	f44f 6200 	mov.w	r2, #2048	; 0x800
 80054be:	f2c4 0201 	movt	r2, #16385	; 0x4001
 80054c2:	68d4      	ldr	r4, [r2, #12]
 80054c4:	f44f 6140 	mov.w	r1, #3072	; 0xc00
 80054c8:	f044 0410 	orr.w	r4, r4, #16
 80054cc:	60d4      	str	r4, [r2, #12]
 80054ce:	68d4      	ldr	r4, [r2, #12]
 80054d0:	f2c4 0101 	movt	r1, #16385	; 0x4001
 80054d4:	f024 0410 	bic.w	r4, r4, #16
 80054d8:	60d4      	str	r4, [r2, #12]
 80054da:	68ca      	ldr	r2, [r1, #12]
 80054dc:	24c5      	movs	r4, #197	; 0xc5
 80054de:	f422 7200 	bic.w	r2, r2, #512	; 0x200
 80054e2:	60ca      	str	r2, [r1, #12]
 80054e4:	461a      	mov	r2, r3
 80054e6:	819c      	strh	r4, [r3, #12]
 80054e8:	8913      	ldrh	r3, [r2, #8]
 80054ea:	0799      	lsls	r1, r3, #30
 80054ec:	d5fc      	bpl.n	80054e8 <Lcd_Init+0x93c>
 80054ee:	f44f 5140 	mov.w	r1, #12288	; 0x3000
 80054f2:	f2c4 0101 	movt	r1, #16385	; 0x4001
 80054f6:	890a      	ldrh	r2, [r1, #8]
 80054f8:	f44f 5340 	mov.w	r3, #12288	; 0x3000
 80054fc:	0612      	lsls	r2, r2, #24
 80054fe:	f2c4 0301 	movt	r3, #16385	; 0x4001
 8005502:	d4f8      	bmi.n	80054f6 <Lcd_Init+0x94a>
 8005504:	f44f 6200 	mov.w	r2, #2048	; 0x800
 8005508:	f2c4 0201 	movt	r2, #16385	; 0x4001
 800550c:	68d4      	ldr	r4, [r2, #12]
 800550e:	f44f 6140 	mov.w	r1, #3072	; 0xc00
 8005512:	f044 0410 	orr.w	r4, r4, #16
 8005516:	60d4      	str	r4, [r2, #12]
 8005518:	68d4      	ldr	r4, [r2, #12]
 800551a:	f2c4 0101 	movt	r1, #16385	; 0x4001
 800551e:	f024 0410 	bic.w	r4, r4, #16
 8005522:	60d4      	str	r4, [r2, #12]
 8005524:	68ca      	ldr	r2, [r1, #12]
 8005526:	2408      	movs	r4, #8
 8005528:	f442 7200 	orr.w	r2, r2, #512	; 0x200
 800552c:	60ca      	str	r2, [r1, #12]
 800552e:	461a      	mov	r2, r3
 8005530:	819c      	strh	r4, [r3, #12]
 8005532:	8913      	ldrh	r3, [r2, #8]
 8005534:	079d      	lsls	r5, r3, #30
 8005536:	d5fc      	bpl.n	8005532 <Lcd_Init+0x986>
 8005538:	f44f 5140 	mov.w	r1, #12288	; 0x3000
 800553c:	f2c4 0101 	movt	r1, #16385	; 0x4001
 8005540:	890a      	ldrh	r2, [r1, #8]
 8005542:	f44f 5340 	mov.w	r3, #12288	; 0x3000
 8005546:	0614      	lsls	r4, r2, #24
 8005548:	f2c4 0301 	movt	r3, #16385	; 0x4001
 800554c:	d4f8      	bmi.n	8005540 <Lcd_Init+0x994>
 800554e:	f44f 6200 	mov.w	r2, #2048	; 0x800
 8005552:	f2c4 0201 	movt	r2, #16385	; 0x4001
 8005556:	68d4      	ldr	r4, [r2, #12]
 8005558:	f44f 6140 	mov.w	r1, #3072	; 0xc00
 800555c:	f044 0410 	orr.w	r4, r4, #16
 8005560:	60d4      	str	r4, [r2, #12]
 8005562:	68d4      	ldr	r4, [r2, #12]
 8005564:	f2c4 0101 	movt	r1, #16385	; 0x4001
 8005568:	f024 0410 	bic.w	r4, r4, #16
 800556c:	60d4      	str	r4, [r2, #12]
 800556e:	68ca      	ldr	r2, [r1, #12]
 8005570:	2426      	movs	r4, #38	; 0x26
 8005572:	f442 7200 	orr.w	r2, r2, #512	; 0x200
 8005576:	60ca      	str	r2, [r1, #12]
 8005578:	461a      	mov	r2, r3
 800557a:	819c      	strh	r4, [r3, #12]
 800557c:	8913      	ldrh	r3, [r2, #8]
 800557e:	0799      	lsls	r1, r3, #30
 8005580:	d5fc      	bpl.n	800557c <Lcd_Init+0x9d0>
 8005582:	f44f 5140 	mov.w	r1, #12288	; 0x3000
 8005586:	f2c4 0101 	movt	r1, #16385	; 0x4001
 800558a:	890a      	ldrh	r2, [r1, #8]
 800558c:	f44f 5340 	mov.w	r3, #12288	; 0x3000
 8005590:	0612      	lsls	r2, r2, #24
 8005592:	f2c4 0301 	movt	r3, #16385	; 0x4001
 8005596:	d4f8      	bmi.n	800558a <Lcd_Init+0x9de>
 8005598:	f44f 6200 	mov.w	r2, #2048	; 0x800
 800559c:	f2c4 0201 	movt	r2, #16385	; 0x4001
 80055a0:	68d4      	ldr	r4, [r2, #12]
 80055a2:	f44f 6140 	mov.w	r1, #3072	; 0xc00
 80055a6:	f044 0410 	orr.w	r4, r4, #16
 80055aa:	60d4      	str	r4, [r2, #12]
 80055ac:	68d4      	ldr	r4, [r2, #12]
 80055ae:	f2c4 0101 	movt	r1, #16385	; 0x4001
 80055b2:	f024 0410 	bic.w	r4, r4, #16
 80055b6:	60d4      	str	r4, [r2, #12]
 80055b8:	68ca      	ldr	r2, [r1, #12]
 80055ba:	24c7      	movs	r4, #199	; 0xc7
 80055bc:	f422 7200 	bic.w	r2, r2, #512	; 0x200
 80055c0:	60ca      	str	r2, [r1, #12]
 80055c2:	461a      	mov	r2, r3
 80055c4:	819c      	strh	r4, [r3, #12]
 80055c6:	8913      	ldrh	r3, [r2, #8]
 80055c8:	079d      	lsls	r5, r3, #30
 80055ca:	d5fc      	bpl.n	80055c6 <Lcd_Init+0xa1a>
 80055cc:	f44f 5140 	mov.w	r1, #12288	; 0x3000
 80055d0:	f2c4 0101 	movt	r1, #16385	; 0x4001
 80055d4:	890a      	ldrh	r2, [r1, #8]
 80055d6:	f44f 5340 	mov.w	r3, #12288	; 0x3000
 80055da:	0614      	lsls	r4, r2, #24
 80055dc:	f2c4 0301 	movt	r3, #16385	; 0x4001
 80055e0:	d4f8      	bmi.n	80055d4 <Lcd_Init+0xa28>
 80055e2:	f44f 6200 	mov.w	r2, #2048	; 0x800
 80055e6:	f2c4 0201 	movt	r2, #16385	; 0x4001
 80055ea:	68d4      	ldr	r4, [r2, #12]
 80055ec:	f44f 6140 	mov.w	r1, #3072	; 0xc00
 80055f0:	f044 0410 	orr.w	r4, r4, #16
 80055f4:	60d4      	str	r4, [r2, #12]
 80055f6:	68d4      	ldr	r4, [r2, #12]
 80055f8:	f2c4 0101 	movt	r1, #16385	; 0x4001
 80055fc:	f024 0410 	bic.w	r4, r4, #16
 8005600:	60d4      	str	r4, [r2, #12]
 8005602:	68ca      	ldr	r2, [r1, #12]
 8005604:	24b7      	movs	r4, #183	; 0xb7
 8005606:	f442 7200 	orr.w	r2, r2, #512	; 0x200
 800560a:	60ca      	str	r2, [r1, #12]
 800560c:	461a      	mov	r2, r3
 800560e:	819c      	strh	r4, [r3, #12]
 8005610:	8913      	ldrh	r3, [r2, #8]
 8005612:	0799      	lsls	r1, r3, #30
 8005614:	d5fc      	bpl.n	8005610 <Lcd_Init+0xa64>
 8005616:	f44f 5140 	mov.w	r1, #12288	; 0x3000
 800561a:	f2c4 0101 	movt	r1, #16385	; 0x4001
 800561e:	890a      	ldrh	r2, [r1, #8]
 8005620:	f44f 5340 	mov.w	r3, #12288	; 0x3000
 8005624:	0612      	lsls	r2, r2, #24
 8005626:	f2c4 0301 	movt	r3, #16385	; 0x4001
 800562a:	d4f8      	bmi.n	800561e <Lcd_Init+0xa72>
 800562c:	f44f 6200 	mov.w	r2, #2048	; 0x800
 8005630:	f2c4 0201 	movt	r2, #16385	; 0x4001
 8005634:	68d4      	ldr	r4, [r2, #12]
 8005636:	f44f 6140 	mov.w	r1, #3072	; 0xc00
 800563a:	f044 0410 	orr.w	r4, r4, #16
 800563e:	60d4      	str	r4, [r2, #12]
 8005640:	68d4      	ldr	r4, [r2, #12]
 8005642:	f2c4 0101 	movt	r1, #16385	; 0x4001
 8005646:	f024 0410 	bic.w	r4, r4, #16
 800564a:	60d4      	str	r4, [r2, #12]
 800564c:	68ca      	ldr	r2, [r1, #12]
 800564e:	24b8      	movs	r4, #184	; 0xb8
 8005650:	f422 7200 	bic.w	r2, r2, #512	; 0x200
 8005654:	60ca      	str	r2, [r1, #12]
 8005656:	461a      	mov	r2, r3
 8005658:	819c      	strh	r4, [r3, #12]
 800565a:	8913      	ldrh	r3, [r2, #8]
 800565c:	079d      	lsls	r5, r3, #30
 800565e:	d5fc      	bpl.n	800565a <Lcd_Init+0xaae>
 8005660:	f44f 5140 	mov.w	r1, #12288	; 0x3000
 8005664:	f2c4 0101 	movt	r1, #16385	; 0x4001
 8005668:	890a      	ldrh	r2, [r1, #8]
 800566a:	f44f 5340 	mov.w	r3, #12288	; 0x3000
 800566e:	0614      	lsls	r4, r2, #24
 8005670:	f2c4 0301 	movt	r3, #16385	; 0x4001
 8005674:	d4f8      	bmi.n	8005668 <Lcd_Init+0xabc>
 8005676:	f44f 6200 	mov.w	r2, #2048	; 0x800
 800567a:	f2c4 0201 	movt	r2, #16385	; 0x4001
 800567e:	68d4      	ldr	r4, [r2, #12]
 8005680:	f44f 6140 	mov.w	r1, #3072	; 0xc00
 8005684:	f044 0410 	orr.w	r4, r4, #16
 8005688:	60d4      	str	r4, [r2, #12]
 800568a:	68d4      	ldr	r4, [r2, #12]
 800568c:	f2c4 0101 	movt	r1, #16385	; 0x4001
 8005690:	f024 0410 	bic.w	r4, r4, #16
 8005694:	60d4      	str	r4, [r2, #12]
 8005696:	68ca      	ldr	r2, [r1, #12]
 8005698:	240f      	movs	r4, #15
 800569a:	f442 7200 	orr.w	r2, r2, #512	; 0x200
 800569e:	60ca      	str	r2, [r1, #12]
 80056a0:	461a      	mov	r2, r3
 80056a2:	819c      	strh	r4, [r3, #12]
 80056a4:	8913      	ldrh	r3, [r2, #8]
 80056a6:	0799      	lsls	r1, r3, #30
 80056a8:	d5fc      	bpl.n	80056a4 <Lcd_Init+0xaf8>
 80056aa:	f44f 5140 	mov.w	r1, #12288	; 0x3000
 80056ae:	f2c4 0101 	movt	r1, #16385	; 0x4001
 80056b2:	890a      	ldrh	r2, [r1, #8]
 80056b4:	f44f 5340 	mov.w	r3, #12288	; 0x3000
 80056b8:	0612      	lsls	r2, r2, #24
 80056ba:	f2c4 0301 	movt	r3, #16385	; 0x4001
 80056be:	d4f8      	bmi.n	80056b2 <Lcd_Init+0xb06>
 80056c0:	f44f 6200 	mov.w	r2, #2048	; 0x800
 80056c4:	f2c4 0201 	movt	r2, #16385	; 0x4001
 80056c8:	68d4      	ldr	r4, [r2, #12]
 80056ca:	f44f 6140 	mov.w	r1, #3072	; 0xc00
 80056ce:	f044 0410 	orr.w	r4, r4, #16
 80056d2:	60d4      	str	r4, [r2, #12]
 80056d4:	68d4      	ldr	r4, [r2, #12]
 80056d6:	f2c4 0101 	movt	r1, #16385	; 0x4001
 80056da:	f024 0410 	bic.w	r4, r4, #16
 80056de:	60d4      	str	r4, [r2, #12]
 80056e0:	68ca      	ldr	r2, [r1, #12]
 80056e2:	24ba      	movs	r4, #186	; 0xba
 80056e4:	f422 7200 	bic.w	r2, r2, #512	; 0x200
 80056e8:	60ca      	str	r2, [r1, #12]
 80056ea:	461a      	mov	r2, r3
 80056ec:	819c      	strh	r4, [r3, #12]
 80056ee:	8913      	ldrh	r3, [r2, #8]
 80056f0:	079d      	lsls	r5, r3, #30
 80056f2:	d5fc      	bpl.n	80056ee <Lcd_Init+0xb42>
 80056f4:	f44f 5140 	mov.w	r1, #12288	; 0x3000
 80056f8:	f2c4 0101 	movt	r1, #16385	; 0x4001
 80056fc:	890a      	ldrh	r2, [r1, #8]
 80056fe:	f44f 5340 	mov.w	r3, #12288	; 0x3000
 8005702:	0614      	lsls	r4, r2, #24
 8005704:	f2c4 0301 	movt	r3, #16385	; 0x4001
 8005708:	d4f8      	bmi.n	80056fc <Lcd_Init+0xb50>
 800570a:	f44f 6200 	mov.w	r2, #2048	; 0x800
 800570e:	f2c4 0201 	movt	r2, #16385	; 0x4001
 8005712:	68d4      	ldr	r4, [r2, #12]
 8005714:	f44f 6140 	mov.w	r1, #3072	; 0xc00
 8005718:	f044 0410 	orr.w	r4, r4, #16
 800571c:	60d4      	str	r4, [r2, #12]
 800571e:	68d4      	ldr	r4, [r2, #12]
 8005720:	f2c4 0101 	movt	r1, #16385	; 0x4001
 8005724:	f024 0410 	bic.w	r4, r4, #16
 8005728:	60d4      	str	r4, [r2, #12]
 800572a:	68ca      	ldr	r2, [r1, #12]
 800572c:	240f      	movs	r4, #15
 800572e:	f442 7200 	orr.w	r2, r2, #512	; 0x200
 8005732:	60ca      	str	r2, [r1, #12]
 8005734:	461a      	mov	r2, r3
 8005736:	819c      	strh	r4, [r3, #12]
 8005738:	8913      	ldrh	r3, [r2, #8]
 800573a:	0799      	lsls	r1, r3, #30
 800573c:	d5fc      	bpl.n	8005738 <Lcd_Init+0xb8c>
 800573e:	f44f 5140 	mov.w	r1, #12288	; 0x3000
 8005742:	f2c4 0101 	movt	r1, #16385	; 0x4001
 8005746:	890a      	ldrh	r2, [r1, #8]
 8005748:	f44f 5340 	mov.w	r3, #12288	; 0x3000
 800574c:	0612      	lsls	r2, r2, #24
 800574e:	f2c4 0301 	movt	r3, #16385	; 0x4001
 8005752:	d4f8      	bmi.n	8005746 <Lcd_Init+0xb9a>
 8005754:	f44f 6200 	mov.w	r2, #2048	; 0x800
 8005758:	f2c4 0201 	movt	r2, #16385	; 0x4001
 800575c:	68d4      	ldr	r4, [r2, #12]
 800575e:	f44f 6140 	mov.w	r1, #3072	; 0xc00
 8005762:	f044 0410 	orr.w	r4, r4, #16
 8005766:	60d4      	str	r4, [r2, #12]
 8005768:	68d4      	ldr	r4, [r2, #12]
 800576a:	f2c4 0101 	movt	r1, #16385	; 0x4001
 800576e:	f024 0410 	bic.w	r4, r4, #16
 8005772:	60d4      	str	r4, [r2, #12]
 8005774:	68ca      	ldr	r2, [r1, #12]
 8005776:	24bb      	movs	r4, #187	; 0xbb
 8005778:	f422 7200 	bic.w	r2, r2, #512	; 0x200
 800577c:	60ca      	str	r2, [r1, #12]
 800577e:	461a      	mov	r2, r3
 8005780:	819c      	strh	r4, [r3, #12]
 8005782:	8913      	ldrh	r3, [r2, #8]
 8005784:	079d      	lsls	r5, r3, #30
 8005786:	d5fc      	bpl.n	8005782 <Lcd_Init+0xbd6>
 8005788:	f44f 5140 	mov.w	r1, #12288	; 0x3000
 800578c:	f2c4 0101 	movt	r1, #16385	; 0x4001
 8005790:	890a      	ldrh	r2, [r1, #8]
 8005792:	f44f 5340 	mov.w	r3, #12288	; 0x3000
 8005796:	0614      	lsls	r4, r2, #24
 8005798:	f2c4 0301 	movt	r3, #16385	; 0x4001
 800579c:	d4f8      	bmi.n	8005790 <Lcd_Init+0xbe4>
 800579e:	f44f 6200 	mov.w	r2, #2048	; 0x800
 80057a2:	f2c4 0201 	movt	r2, #16385	; 0x4001
 80057a6:	68d4      	ldr	r4, [r2, #12]
 80057a8:	f44f 6140 	mov.w	r1, #3072	; 0xc00
 80057ac:	f044 0410 	orr.w	r4, r4, #16
 80057b0:	60d4      	str	r4, [r2, #12]
 80057b2:	68d4      	ldr	r4, [r2, #12]
 80057b4:	f2c4 0101 	movt	r1, #16385	; 0x4001
 80057b8:	f024 0410 	bic.w	r4, r4, #16
 80057bc:	60d4      	str	r4, [r2, #12]
 80057be:	68ca      	ldr	r2, [r1, #12]
 80057c0:	24ff      	movs	r4, #255	; 0xff
 80057c2:	f442 7200 	orr.w	r2, r2, #512	; 0x200
 80057c6:	60ca      	str	r2, [r1, #12]
 80057c8:	461a      	mov	r2, r3
 80057ca:	819c      	strh	r4, [r3, #12]
 80057cc:	8913      	ldrh	r3, [r2, #8]
 80057ce:	0799      	lsls	r1, r3, #30
 80057d0:	d5fc      	bpl.n	80057cc <Lcd_Init+0xc20>
 80057d2:	f44f 5140 	mov.w	r1, #12288	; 0x3000
 80057d6:	f2c4 0101 	movt	r1, #16385	; 0x4001
 80057da:	890a      	ldrh	r2, [r1, #8]
 80057dc:	f44f 5340 	mov.w	r3, #12288	; 0x3000
 80057e0:	0612      	lsls	r2, r2, #24
 80057e2:	f2c4 0301 	movt	r3, #16385	; 0x4001
 80057e6:	d4f8      	bmi.n	80057da <Lcd_Init+0xc2e>
 80057e8:	f44f 6200 	mov.w	r2, #2048	; 0x800
 80057ec:	f2c4 0201 	movt	r2, #16385	; 0x4001
 80057f0:	68d4      	ldr	r4, [r2, #12]
 80057f2:	f44f 6140 	mov.w	r1, #3072	; 0xc00
 80057f6:	f044 0410 	orr.w	r4, r4, #16
 80057fa:	60d4      	str	r4, [r2, #12]
 80057fc:	68d4      	ldr	r4, [r2, #12]
 80057fe:	f2c4 0101 	movt	r1, #16385	; 0x4001
 8005802:	f024 0410 	bic.w	r4, r4, #16
 8005806:	60d4      	str	r4, [r2, #12]
 8005808:	68ca      	ldr	r2, [r1, #12]
 800580a:	24be      	movs	r4, #190	; 0xbe
 800580c:	f422 7200 	bic.w	r2, r2, #512	; 0x200
 8005810:	60ca      	str	r2, [r1, #12]
 8005812:	461a      	mov	r2, r3
 8005814:	819c      	strh	r4, [r3, #12]
 8005816:	8913      	ldrh	r3, [r2, #8]
 8005818:	079d      	lsls	r5, r3, #30
 800581a:	d5fc      	bpl.n	8005816 <Lcd_Init+0xc6a>
 800581c:	f44f 5140 	mov.w	r1, #12288	; 0x3000
 8005820:	f2c4 0101 	movt	r1, #16385	; 0x4001
 8005824:	890a      	ldrh	r2, [r1, #8]
 8005826:	f44f 5340 	mov.w	r3, #12288	; 0x3000
 800582a:	0614      	lsls	r4, r2, #24
 800582c:	f2c4 0301 	movt	r3, #16385	; 0x4001
 8005830:	d4f8      	bmi.n	8005824 <Lcd_Init+0xc78>
 8005832:	f44f 6200 	mov.w	r2, #2048	; 0x800
 8005836:	f2c4 0201 	movt	r2, #16385	; 0x4001
 800583a:	68d4      	ldr	r4, [r2, #12]
 800583c:	f44f 6140 	mov.w	r1, #3072	; 0xc00
 8005840:	f044 0410 	orr.w	r4, r4, #16
 8005844:	60d4      	str	r4, [r2, #12]
 8005846:	68d4      	ldr	r4, [r2, #12]
 8005848:	f2c4 0101 	movt	r1, #16385	; 0x4001
 800584c:	f024 0410 	bic.w	r4, r4, #16
 8005850:	60d4      	str	r4, [r2, #12]
 8005852:	68ca      	ldr	r2, [r1, #12]
 8005854:	24ff      	movs	r4, #255	; 0xff
 8005856:	f442 7200 	orr.w	r2, r2, #512	; 0x200
 800585a:	60ca      	str	r2, [r1, #12]
 800585c:	461a      	mov	r2, r3
 800585e:	819c      	strh	r4, [r3, #12]
 8005860:	8913      	ldrh	r3, [r2, #8]
 8005862:	0799      	lsls	r1, r3, #30
 8005864:	d5fc      	bpl.n	8005860 <Lcd_Init+0xcb4>
 8005866:	f44f 5140 	mov.w	r1, #12288	; 0x3000
 800586a:	f2c4 0101 	movt	r1, #16385	; 0x4001
 800586e:	890a      	ldrh	r2, [r1, #8]
 8005870:	f44f 5340 	mov.w	r3, #12288	; 0x3000
 8005874:	0612      	lsls	r2, r2, #24
 8005876:	f2c4 0301 	movt	r3, #16385	; 0x4001
 800587a:	d4f8      	bmi.n	800586e <Lcd_Init+0xcc2>
 800587c:	f44f 6200 	mov.w	r2, #2048	; 0x800
 8005880:	f2c4 0201 	movt	r2, #16385	; 0x4001
 8005884:	68d4      	ldr	r4, [r2, #12]
 8005886:	f44f 6140 	mov.w	r1, #3072	; 0xc00
 800588a:	f044 0410 	orr.w	r4, r4, #16
 800588e:	60d4      	str	r4, [r2, #12]
 8005890:	68d4      	ldr	r4, [r2, #12]
 8005892:	f2c4 0101 	movt	r1, #16385	; 0x4001
 8005896:	f024 0410 	bic.w	r4, r4, #16
 800589a:	60d4      	str	r4, [r2, #12]
 800589c:	68ca      	ldr	r2, [r1, #12]
 800589e:	2436      	movs	r4, #54	; 0x36
 80058a0:	f422 7200 	bic.w	r2, r2, #512	; 0x200
 80058a4:	60ca      	str	r2, [r1, #12]
 80058a6:	461a      	mov	r2, r3
 80058a8:	819c      	strh	r4, [r3, #12]
 80058aa:	8913      	ldrh	r3, [r2, #8]
 80058ac:	079d      	lsls	r5, r3, #30
 80058ae:	d5fc      	bpl.n	80058aa <Lcd_Init+0xcfe>
 80058b0:	f44f 5140 	mov.w	r1, #12288	; 0x3000
 80058b4:	f2c4 0101 	movt	r1, #16385	; 0x4001
 80058b8:	890a      	ldrh	r2, [r1, #8]
 80058ba:	f44f 5340 	mov.w	r3, #12288	; 0x3000
 80058be:	0614      	lsls	r4, r2, #24
 80058c0:	f2c4 0301 	movt	r3, #16385	; 0x4001
 80058c4:	d4f8      	bmi.n	80058b8 <Lcd_Init+0xd0c>
 80058c6:	f44f 6200 	mov.w	r2, #2048	; 0x800
 80058ca:	f2c4 0201 	movt	r2, #16385	; 0x4001
 80058ce:	68d4      	ldr	r4, [r2, #12]
 80058d0:	f44f 6140 	mov.w	r1, #3072	; 0xc00
 80058d4:	f044 0410 	orr.w	r4, r4, #16
 80058d8:	60d4      	str	r4, [r2, #12]
 80058da:	68d4      	ldr	r4, [r2, #12]
 80058dc:	f2c4 0101 	movt	r1, #16385	; 0x4001
 80058e0:	f024 0410 	bic.w	r4, r4, #16
 80058e4:	60d4      	str	r4, [r2, #12]
 80058e6:	68ca      	ldr	r2, [r1, #12]
 80058e8:	2408      	movs	r4, #8
 80058ea:	f442 7200 	orr.w	r2, r2, #512	; 0x200
 80058ee:	60ca      	str	r2, [r1, #12]
 80058f0:	461a      	mov	r2, r3
 80058f2:	819c      	strh	r4, [r3, #12]
 80058f4:	8913      	ldrh	r3, [r2, #8]
 80058f6:	0799      	lsls	r1, r3, #30
 80058f8:	d5fc      	bpl.n	80058f4 <Lcd_Init+0xd48>
 80058fa:	f44f 5140 	mov.w	r1, #12288	; 0x3000
 80058fe:	f2c4 0101 	movt	r1, #16385	; 0x4001
 8005902:	890a      	ldrh	r2, [r1, #8]
 8005904:	f44f 5340 	mov.w	r3, #12288	; 0x3000
 8005908:	0612      	lsls	r2, r2, #24
 800590a:	f2c4 0301 	movt	r3, #16385	; 0x4001
 800590e:	d4f8      	bmi.n	8005902 <Lcd_Init+0xd56>
 8005910:	f44f 6200 	mov.w	r2, #2048	; 0x800
 8005914:	f2c4 0201 	movt	r2, #16385	; 0x4001
 8005918:	68d4      	ldr	r4, [r2, #12]
 800591a:	f44f 6140 	mov.w	r1, #3072	; 0xc00
 800591e:	f044 0410 	orr.w	r4, r4, #16
 8005922:	60d4      	str	r4, [r2, #12]
 8005924:	68d4      	ldr	r4, [r2, #12]
 8005926:	f2c4 0101 	movt	r1, #16385	; 0x4001
 800592a:	f024 0410 	bic.w	r4, r4, #16
 800592e:	60d4      	str	r4, [r2, #12]
 8005930:	68ca      	ldr	r2, [r1, #12]
 8005932:	243a      	movs	r4, #58	; 0x3a
 8005934:	f422 7200 	bic.w	r2, r2, #512	; 0x200
 8005938:	60ca      	str	r2, [r1, #12]
 800593a:	461a      	mov	r2, r3
 800593c:	819c      	strh	r4, [r3, #12]
 800593e:	8913      	ldrh	r3, [r2, #8]
 8005940:	079d      	lsls	r5, r3, #30
 8005942:	d5fc      	bpl.n	800593e <Lcd_Init+0xd92>
 8005944:	f44f 5140 	mov.w	r1, #12288	; 0x3000
 8005948:	f2c4 0101 	movt	r1, #16385	; 0x4001
 800594c:	890a      	ldrh	r2, [r1, #8]
 800594e:	f44f 5340 	mov.w	r3, #12288	; 0x3000
 8005952:	0614      	lsls	r4, r2, #24
 8005954:	f2c4 0301 	movt	r3, #16385	; 0x4001
 8005958:	d4f8      	bmi.n	800594c <Lcd_Init+0xda0>
 800595a:	f44f 6200 	mov.w	r2, #2048	; 0x800
 800595e:	f2c4 0201 	movt	r2, #16385	; 0x4001
 8005962:	68d4      	ldr	r4, [r2, #12]
 8005964:	f44f 6140 	mov.w	r1, #3072	; 0xc00
 8005968:	f044 0410 	orr.w	r4, r4, #16
 800596c:	60d4      	str	r4, [r2, #12]
 800596e:	68d4      	ldr	r4, [r2, #12]
 8005970:	f2c4 0101 	movt	r1, #16385	; 0x4001
 8005974:	f024 0410 	bic.w	r4, r4, #16
 8005978:	60d4      	str	r4, [r2, #12]
 800597a:	68ca      	ldr	r2, [r1, #12]
 800597c:	2455      	movs	r4, #85	; 0x55
 800597e:	f442 7200 	orr.w	r2, r2, #512	; 0x200
 8005982:	60ca      	str	r2, [r1, #12]
 8005984:	461a      	mov	r2, r3
 8005986:	819c      	strh	r4, [r3, #12]
 8005988:	8913      	ldrh	r3, [r2, #8]
 800598a:	0799      	lsls	r1, r3, #30
 800598c:	d5fc      	bpl.n	8005988 <Lcd_Init+0xddc>
 800598e:	f44f 5140 	mov.w	r1, #12288	; 0x3000
 8005992:	f2c4 0101 	movt	r1, #16385	; 0x4001
 8005996:	890a      	ldrh	r2, [r1, #8]
 8005998:	f44f 5340 	mov.w	r3, #12288	; 0x3000
 800599c:	0612      	lsls	r2, r2, #24
 800599e:	f2c4 0301 	movt	r3, #16385	; 0x4001
 80059a2:	d4f8      	bmi.n	8005996 <Lcd_Init+0xdea>
 80059a4:	f44f 6200 	mov.w	r2, #2048	; 0x800
 80059a8:	f2c4 0201 	movt	r2, #16385	; 0x4001
 80059ac:	68d4      	ldr	r4, [r2, #12]
 80059ae:	f44f 6140 	mov.w	r1, #3072	; 0xc00
 80059b2:	f044 0410 	orr.w	r4, r4, #16
 80059b6:	60d4      	str	r4, [r2, #12]
 80059b8:	68d4      	ldr	r4, [r2, #12]
 80059ba:	f2c4 0101 	movt	r1, #16385	; 0x4001
 80059be:	f024 0410 	bic.w	r4, r4, #16
 80059c2:	60d4      	str	r4, [r2, #12]
 80059c4:	68ca      	ldr	r2, [r1, #12]
 80059c6:	24b1      	movs	r4, #177	; 0xb1
 80059c8:	f422 7200 	bic.w	r2, r2, #512	; 0x200
 80059cc:	60ca      	str	r2, [r1, #12]
 80059ce:	461a      	mov	r2, r3
 80059d0:	819c      	strh	r4, [r3, #12]
 80059d2:	8913      	ldrh	r3, [r2, #8]
 80059d4:	079d      	lsls	r5, r3, #30
 80059d6:	d5fc      	bpl.n	80059d2 <Lcd_Init+0xe26>
 80059d8:	f44f 5140 	mov.w	r1, #12288	; 0x3000
 80059dc:	f2c4 0101 	movt	r1, #16385	; 0x4001
 80059e0:	890a      	ldrh	r2, [r1, #8]
 80059e2:	f44f 5340 	mov.w	r3, #12288	; 0x3000
 80059e6:	f002 0280 	and.w	r2, r2, #128	; 0x80
 80059ea:	b292      	uxth	r2, r2
 80059ec:	f2c4 0301 	movt	r3, #16385	; 0x4001
 80059f0:	2a00      	cmp	r2, #0
 80059f2:	d1f5      	bne.n	80059e0 <Lcd_Init+0xe34>
 80059f4:	f44f 6100 	mov.w	r1, #2048	; 0x800
 80059f8:	f2c4 0101 	movt	r1, #16385	; 0x4001
 80059fc:	68cd      	ldr	r5, [r1, #12]
 80059fe:	f44f 6440 	mov.w	r4, #3072	; 0xc00
 8005a02:	f045 0510 	orr.w	r5, r5, #16
 8005a06:	60cd      	str	r5, [r1, #12]
 8005a08:	68cd      	ldr	r5, [r1, #12]
 8005a0a:	f2c4 0401 	movt	r4, #16385	; 0x4001
 8005a0e:	f025 0510 	bic.w	r5, r5, #16
 8005a12:	60cd      	str	r5, [r1, #12]
 8005a14:	68e5      	ldr	r5, [r4, #12]
 8005a16:	4619      	mov	r1, r3
 8005a18:	f445 7500 	orr.w	r5, r5, #512	; 0x200
 8005a1c:	60e5      	str	r5, [r4, #12]
 8005a1e:	819a      	strh	r2, [r3, #12]
 8005a20:	890b      	ldrh	r3, [r1, #8]
 8005a22:	079c      	lsls	r4, r3, #30
 8005a24:	d5fc      	bpl.n	8005a20 <Lcd_Init+0xe74>
 8005a26:	f44f 5140 	mov.w	r1, #12288	; 0x3000
 8005a2a:	f2c4 0101 	movt	r1, #16385	; 0x4001
 8005a2e:	890a      	ldrh	r2, [r1, #8]
 8005a30:	f44f 5340 	mov.w	r3, #12288	; 0x3000
 8005a34:	0612      	lsls	r2, r2, #24
 8005a36:	f2c4 0301 	movt	r3, #16385	; 0x4001
 8005a3a:	d4f8      	bmi.n	8005a2e <Lcd_Init+0xe82>
 8005a3c:	f44f 6200 	mov.w	r2, #2048	; 0x800
 8005a40:	f2c4 0201 	movt	r2, #16385	; 0x4001
 8005a44:	68d4      	ldr	r4, [r2, #12]
 8005a46:	f44f 6140 	mov.w	r1, #3072	; 0xc00
 8005a4a:	f044 0410 	orr.w	r4, r4, #16
 8005a4e:	60d4      	str	r4, [r2, #12]
 8005a50:	68d4      	ldr	r4, [r2, #12]
 8005a52:	f2c4 0101 	movt	r1, #16385	; 0x4001
 8005a56:	f024 0410 	bic.w	r4, r4, #16
 8005a5a:	60d4      	str	r4, [r2, #12]
 8005a5c:	68ca      	ldr	r2, [r1, #12]
 8005a5e:	241a      	movs	r4, #26
 8005a60:	f442 7200 	orr.w	r2, r2, #512	; 0x200
 8005a64:	60ca      	str	r2, [r1, #12]
 8005a66:	461a      	mov	r2, r3
 8005a68:	819c      	strh	r4, [r3, #12]
 8005a6a:	8913      	ldrh	r3, [r2, #8]
 8005a6c:	079d      	lsls	r5, r3, #30
 8005a6e:	d5fc      	bpl.n	8005a6a <Lcd_Init+0xebe>
 8005a70:	f44f 5140 	mov.w	r1, #12288	; 0x3000
 8005a74:	f2c4 0101 	movt	r1, #16385	; 0x4001
 8005a78:	890a      	ldrh	r2, [r1, #8]
 8005a7a:	f44f 5340 	mov.w	r3, #12288	; 0x3000
 8005a7e:	0614      	lsls	r4, r2, #24
 8005a80:	f2c4 0301 	movt	r3, #16385	; 0x4001
 8005a84:	d4f8      	bmi.n	8005a78 <Lcd_Init+0xecc>
 8005a86:	f44f 6200 	mov.w	r2, #2048	; 0x800
 8005a8a:	f2c4 0201 	movt	r2, #16385	; 0x4001
 8005a8e:	68d4      	ldr	r4, [r2, #12]
 8005a90:	f44f 6140 	mov.w	r1, #3072	; 0xc00
 8005a94:	f044 0410 	orr.w	r4, r4, #16
 8005a98:	60d4      	str	r4, [r2, #12]
 8005a9a:	68d4      	ldr	r4, [r2, #12]
 8005a9c:	f2c4 0101 	movt	r1, #16385	; 0x4001
 8005aa0:	f024 0410 	bic.w	r4, r4, #16
 8005aa4:	60d4      	str	r4, [r2, #12]
 8005aa6:	68ca      	ldr	r2, [r1, #12]
 8005aa8:	24b6      	movs	r4, #182	; 0xb6
 8005aaa:	f422 7200 	bic.w	r2, r2, #512	; 0x200
 8005aae:	60ca      	str	r2, [r1, #12]
 8005ab0:	461a      	mov	r2, r3
 8005ab2:	819c      	strh	r4, [r3, #12]
 8005ab4:	8913      	ldrh	r3, [r2, #8]
 8005ab6:	0799      	lsls	r1, r3, #30
 8005ab8:	d5fc      	bpl.n	8005ab4 <Lcd_Init+0xf08>
 8005aba:	f44f 5140 	mov.w	r1, #12288	; 0x3000
 8005abe:	f2c4 0101 	movt	r1, #16385	; 0x4001
 8005ac2:	890a      	ldrh	r2, [r1, #8]
 8005ac4:	f44f 5340 	mov.w	r3, #12288	; 0x3000
 8005ac8:	0612      	lsls	r2, r2, #24
 8005aca:	f2c4 0301 	movt	r3, #16385	; 0x4001
 8005ace:	d4f8      	bmi.n	8005ac2 <Lcd_Init+0xf16>
 8005ad0:	f44f 6200 	mov.w	r2, #2048	; 0x800
 8005ad4:	f2c4 0201 	movt	r2, #16385	; 0x4001
 8005ad8:	68d4      	ldr	r4, [r2, #12]
 8005ada:	f44f 6140 	mov.w	r1, #3072	; 0xc00
 8005ade:	f044 0410 	orr.w	r4, r4, #16
 8005ae2:	60d4      	str	r4, [r2, #12]
 8005ae4:	68d4      	ldr	r4, [r2, #12]
 8005ae6:	f2c4 0101 	movt	r1, #16385	; 0x4001
 8005aea:	f024 0410 	bic.w	r4, r4, #16
 8005aee:	60d4      	str	r4, [r2, #12]
 8005af0:	68ca      	ldr	r2, [r1, #12]
 8005af2:	240a      	movs	r4, #10
 8005af4:	f442 7200 	orr.w	r2, r2, #512	; 0x200
 8005af8:	60ca      	str	r2, [r1, #12]
 8005afa:	461a      	mov	r2, r3
 8005afc:	819c      	strh	r4, [r3, #12]
 8005afe:	8913      	ldrh	r3, [r2, #8]
 8005b00:	079d      	lsls	r5, r3, #30
 8005b02:	d5fc      	bpl.n	8005afe <Lcd_Init+0xf52>
 8005b04:	f44f 5140 	mov.w	r1, #12288	; 0x3000
 8005b08:	f2c4 0101 	movt	r1, #16385	; 0x4001
 8005b0c:	890a      	ldrh	r2, [r1, #8]
 8005b0e:	f44f 5340 	mov.w	r3, #12288	; 0x3000
 8005b12:	0614      	lsls	r4, r2, #24
 8005b14:	f2c4 0301 	movt	r3, #16385	; 0x4001
 8005b18:	d4f8      	bmi.n	8005b0c <Lcd_Init+0xf60>
 8005b1a:	f44f 6200 	mov.w	r2, #2048	; 0x800
 8005b1e:	f2c4 0201 	movt	r2, #16385	; 0x4001
 8005b22:	68d4      	ldr	r4, [r2, #12]
 8005b24:	f44f 6140 	mov.w	r1, #3072	; 0xc00
 8005b28:	f044 0410 	orr.w	r4, r4, #16
 8005b2c:	60d4      	str	r4, [r2, #12]
 8005b2e:	68d4      	ldr	r4, [r2, #12]
 8005b30:	f2c4 0101 	movt	r1, #16385	; 0x4001
 8005b34:	f024 0410 	bic.w	r4, r4, #16
 8005b38:	60d4      	str	r4, [r2, #12]
 8005b3a:	68ca      	ldr	r2, [r1, #12]
 8005b3c:	24a2      	movs	r4, #162	; 0xa2
 8005b3e:	f442 7200 	orr.w	r2, r2, #512	; 0x200
 8005b42:	60ca      	str	r2, [r1, #12]
 8005b44:	461a      	mov	r2, r3
 8005b46:	819c      	strh	r4, [r3, #12]
 8005b48:	8913      	ldrh	r3, [r2, #8]
 8005b4a:	0799      	lsls	r1, r3, #30
 8005b4c:	d5fc      	bpl.n	8005b48 <Lcd_Init+0xf9c>
 8005b4e:	f44f 5140 	mov.w	r1, #12288	; 0x3000
 8005b52:	f2c4 0101 	movt	r1, #16385	; 0x4001
 8005b56:	890a      	ldrh	r2, [r1, #8]
 8005b58:	f44f 5340 	mov.w	r3, #12288	; 0x3000
 8005b5c:	0612      	lsls	r2, r2, #24
 8005b5e:	f2c4 0301 	movt	r3, #16385	; 0x4001
 8005b62:	d4f8      	bmi.n	8005b56 <Lcd_Init+0xfaa>
 8005b64:	f44f 6200 	mov.w	r2, #2048	; 0x800
 8005b68:	f2c4 0201 	movt	r2, #16385	; 0x4001
 8005b6c:	68d4      	ldr	r4, [r2, #12]
 8005b6e:	f44f 6140 	mov.w	r1, #3072	; 0xc00
 8005b72:	f044 0410 	orr.w	r4, r4, #16
 8005b76:	60d4      	str	r4, [r2, #12]
 8005b78:	68d4      	ldr	r4, [r2, #12]
 8005b7a:	f2c4 0101 	movt	r1, #16385	; 0x4001
 8005b7e:	f024 0410 	bic.w	r4, r4, #16
 8005b82:	60d4      	str	r4, [r2, #12]
 8005b84:	68ca      	ldr	r2, [r1, #12]
 8005b86:	24f2      	movs	r4, #242	; 0xf2
 8005b88:	f422 7200 	bic.w	r2, r2, #512	; 0x200
 8005b8c:	60ca      	str	r2, [r1, #12]
 8005b8e:	461a      	mov	r2, r3
 8005b90:	819c      	strh	r4, [r3, #12]
 8005b92:	8913      	ldrh	r3, [r2, #8]
 8005b94:	079d      	lsls	r5, r3, #30
 8005b96:	d5fc      	bpl.n	8005b92 <Lcd_Init+0xfe6>
 8005b98:	f44f 5140 	mov.w	r1, #12288	; 0x3000
 8005b9c:	f2c4 0101 	movt	r1, #16385	; 0x4001
 8005ba0:	890a      	ldrh	r2, [r1, #8]
 8005ba2:	f44f 5340 	mov.w	r3, #12288	; 0x3000
 8005ba6:	f002 0280 	and.w	r2, r2, #128	; 0x80
 8005baa:	b292      	uxth	r2, r2
 8005bac:	f2c4 0301 	movt	r3, #16385	; 0x4001
 8005bb0:	2a00      	cmp	r2, #0
 8005bb2:	d1f5      	bne.n	8005ba0 <Lcd_Init+0xff4>
 8005bb4:	f44f 6100 	mov.w	r1, #2048	; 0x800
 8005bb8:	f2c4 0101 	movt	r1, #16385	; 0x4001
 8005bbc:	68cd      	ldr	r5, [r1, #12]
 8005bbe:	f44f 6440 	mov.w	r4, #3072	; 0xc00
 8005bc2:	f045 0510 	orr.w	r5, r5, #16
 8005bc6:	60cd      	str	r5, [r1, #12]
 8005bc8:	68cd      	ldr	r5, [r1, #12]
 8005bca:	f2c4 0401 	movt	r4, #16385	; 0x4001
 8005bce:	f025 0510 	bic.w	r5, r5, #16
 8005bd2:	60cd      	str	r5, [r1, #12]
 8005bd4:	68e5      	ldr	r5, [r4, #12]
 8005bd6:	4619      	mov	r1, r3
 8005bd8:	f445 7500 	orr.w	r5, r5, #512	; 0x200
 8005bdc:	60e5      	str	r5, [r4, #12]
 8005bde:	819a      	strh	r2, [r3, #12]
 8005be0:	890b      	ldrh	r3, [r1, #8]
 8005be2:	079c      	lsls	r4, r3, #30
 8005be4:	d5fc      	bpl.n	8005be0 <Lcd_Init+0x1034>
 8005be6:	f44f 5140 	mov.w	r1, #12288	; 0x3000
 8005bea:	f2c4 0101 	movt	r1, #16385	; 0x4001
 8005bee:	890a      	ldrh	r2, [r1, #8]
 8005bf0:	f44f 5340 	mov.w	r3, #12288	; 0x3000
 8005bf4:	0612      	lsls	r2, r2, #24
 8005bf6:	f2c4 0301 	movt	r3, #16385	; 0x4001
 8005bfa:	d4f8      	bmi.n	8005bee <Lcd_Init+0x1042>
 8005bfc:	f44f 6200 	mov.w	r2, #2048	; 0x800
 8005c00:	f2c4 0201 	movt	r2, #16385	; 0x4001
 8005c04:	68d4      	ldr	r4, [r2, #12]
 8005c06:	f44f 6140 	mov.w	r1, #3072	; 0xc00
 8005c0a:	f044 0410 	orr.w	r4, r4, #16
 8005c0e:	60d4      	str	r4, [r2, #12]
 8005c10:	68d4      	ldr	r4, [r2, #12]
 8005c12:	f2c4 0101 	movt	r1, #16385	; 0x4001
 8005c16:	f024 0410 	bic.w	r4, r4, #16
 8005c1a:	60d4      	str	r4, [r2, #12]
 8005c1c:	68ca      	ldr	r2, [r1, #12]
 8005c1e:	2426      	movs	r4, #38	; 0x26
 8005c20:	f422 7200 	bic.w	r2, r2, #512	; 0x200
 8005c24:	60ca      	str	r2, [r1, #12]
 8005c26:	461a      	mov	r2, r3
 8005c28:	819c      	strh	r4, [r3, #12]
 8005c2a:	8913      	ldrh	r3, [r2, #8]
 8005c2c:	079d      	lsls	r5, r3, #30
 8005c2e:	d5fc      	bpl.n	8005c2a <Lcd_Init+0x107e>
 8005c30:	f44f 5140 	mov.w	r1, #12288	; 0x3000
 8005c34:	f2c4 0101 	movt	r1, #16385	; 0x4001
 8005c38:	890a      	ldrh	r2, [r1, #8]
 8005c3a:	f44f 5340 	mov.w	r3, #12288	; 0x3000
 8005c3e:	0614      	lsls	r4, r2, #24
 8005c40:	f2c4 0301 	movt	r3, #16385	; 0x4001
 8005c44:	d4f8      	bmi.n	8005c38 <Lcd_Init+0x108c>
 8005c46:	f44f 6200 	mov.w	r2, #2048	; 0x800
 8005c4a:	f2c4 0201 	movt	r2, #16385	; 0x4001
 8005c4e:	68d4      	ldr	r4, [r2, #12]
 8005c50:	f44f 6140 	mov.w	r1, #3072	; 0xc00
 8005c54:	f044 0410 	orr.w	r4, r4, #16
 8005c58:	60d4      	str	r4, [r2, #12]
 8005c5a:	68d4      	ldr	r4, [r2, #12]
 8005c5c:	f2c4 0101 	movt	r1, #16385	; 0x4001
 8005c60:	f024 0410 	bic.w	r4, r4, #16
 8005c64:	60d4      	str	r4, [r2, #12]
 8005c66:	68ca      	ldr	r2, [r1, #12]
 8005c68:	2401      	movs	r4, #1
 8005c6a:	f442 7200 	orr.w	r2, r2, #512	; 0x200
 8005c6e:	60ca      	str	r2, [r1, #12]
 8005c70:	461a      	mov	r2, r3
 8005c72:	819c      	strh	r4, [r3, #12]
 8005c74:	8913      	ldrh	r3, [r2, #8]
 8005c76:	0799      	lsls	r1, r3, #30
 8005c78:	d5fc      	bpl.n	8005c74 <Lcd_Init+0x10c8>
 8005c7a:	f44f 5140 	mov.w	r1, #12288	; 0x3000
 8005c7e:	f2c4 0101 	movt	r1, #16385	; 0x4001
 8005c82:	890a      	ldrh	r2, [r1, #8]
 8005c84:	f44f 5340 	mov.w	r3, #12288	; 0x3000
 8005c88:	0612      	lsls	r2, r2, #24
 8005c8a:	f2c4 0301 	movt	r3, #16385	; 0x4001
 8005c8e:	d4f8      	bmi.n	8005c82 <Lcd_Init+0x10d6>
 8005c90:	f44f 6200 	mov.w	r2, #2048	; 0x800
 8005c94:	f2c4 0201 	movt	r2, #16385	; 0x4001
 8005c98:	68d4      	ldr	r4, [r2, #12]
 8005c9a:	f44f 6140 	mov.w	r1, #3072	; 0xc00
 8005c9e:	f044 0410 	orr.w	r4, r4, #16
 8005ca2:	60d4      	str	r4, [r2, #12]
 8005ca4:	68d4      	ldr	r4, [r2, #12]
 8005ca6:	f2c4 0101 	movt	r1, #16385	; 0x4001
 8005caa:	f024 0410 	bic.w	r4, r4, #16
 8005cae:	60d4      	str	r4, [r2, #12]
 8005cb0:	68ca      	ldr	r2, [r1, #12]
 8005cb2:	24e0      	movs	r4, #224	; 0xe0
 8005cb4:	f422 7200 	bic.w	r2, r2, #512	; 0x200
 8005cb8:	60ca      	str	r2, [r1, #12]
 8005cba:	461a      	mov	r2, r3
 8005cbc:	819c      	strh	r4, [r3, #12]
 8005cbe:	8913      	ldrh	r3, [r2, #8]
 8005cc0:	079d      	lsls	r5, r3, #30
 8005cc2:	d5fc      	bpl.n	8005cbe <Lcd_Init+0x1112>
 8005cc4:	f44f 5140 	mov.w	r1, #12288	; 0x3000
 8005cc8:	f2c4 0101 	movt	r1, #16385	; 0x4001
 8005ccc:	890a      	ldrh	r2, [r1, #8]
 8005cce:	f44f 5340 	mov.w	r3, #12288	; 0x3000
 8005cd2:	0614      	lsls	r4, r2, #24
 8005cd4:	f2c4 0301 	movt	r3, #16385	; 0x4001
 8005cd8:	d4f8      	bmi.n	8005ccc <Lcd_Init+0x1120>
 8005cda:	f44f 6200 	mov.w	r2, #2048	; 0x800
 8005cde:	f2c4 0201 	movt	r2, #16385	; 0x4001
 8005ce2:	68d4      	ldr	r4, [r2, #12]
 8005ce4:	f44f 6140 	mov.w	r1, #3072	; 0xc00
 8005ce8:	f044 0410 	orr.w	r4, r4, #16
 8005cec:	60d4      	str	r4, [r2, #12]
 8005cee:	68d4      	ldr	r4, [r2, #12]
 8005cf0:	f2c4 0101 	movt	r1, #16385	; 0x4001
 8005cf4:	f024 0410 	bic.w	r4, r4, #16
 8005cf8:	60d4      	str	r4, [r2, #12]
 8005cfa:	68ca      	ldr	r2, [r1, #12]
 8005cfc:	240f      	movs	r4, #15
 8005cfe:	f442 7200 	orr.w	r2, r2, #512	; 0x200
 8005d02:	60ca      	str	r2, [r1, #12]
 8005d04:	461a      	mov	r2, r3
 8005d06:	819c      	strh	r4, [r3, #12]
 8005d08:	8913      	ldrh	r3, [r2, #8]
 8005d0a:	0799      	lsls	r1, r3, #30
 8005d0c:	d5fc      	bpl.n	8005d08 <Lcd_Init+0x115c>
 8005d0e:	f44f 5140 	mov.w	r1, #12288	; 0x3000
 8005d12:	f2c4 0101 	movt	r1, #16385	; 0x4001
 8005d16:	890a      	ldrh	r2, [r1, #8]
 8005d18:	f44f 5340 	mov.w	r3, #12288	; 0x3000
 8005d1c:	0612      	lsls	r2, r2, #24
 8005d1e:	f2c4 0301 	movt	r3, #16385	; 0x4001
 8005d22:	d4f8      	bmi.n	8005d16 <Lcd_Init+0x116a>
 8005d24:	f44f 6200 	mov.w	r2, #2048	; 0x800
 8005d28:	f2c4 0201 	movt	r2, #16385	; 0x4001
 8005d2c:	68d4      	ldr	r4, [r2, #12]
 8005d2e:	f44f 6140 	mov.w	r1, #3072	; 0xc00
 8005d32:	f044 0410 	orr.w	r4, r4, #16
 8005d36:	60d4      	str	r4, [r2, #12]
 8005d38:	68d4      	ldr	r4, [r2, #12]
 8005d3a:	f2c4 0101 	movt	r1, #16385	; 0x4001
 8005d3e:	f024 0410 	bic.w	r4, r4, #16
 8005d42:	60d4      	str	r4, [r2, #12]
 8005d44:	68ca      	ldr	r2, [r1, #12]
 8005d46:	241d      	movs	r4, #29
 8005d48:	f442 7200 	orr.w	r2, r2, #512	; 0x200
 8005d4c:	60ca      	str	r2, [r1, #12]
 8005d4e:	461a      	mov	r2, r3
 8005d50:	819c      	strh	r4, [r3, #12]
 8005d52:	8913      	ldrh	r3, [r2, #8]
 8005d54:	079d      	lsls	r5, r3, #30
 8005d56:	d5fc      	bpl.n	8005d52 <Lcd_Init+0x11a6>
 8005d58:	f44f 5140 	mov.w	r1, #12288	; 0x3000
 8005d5c:	f2c4 0101 	movt	r1, #16385	; 0x4001
 8005d60:	890a      	ldrh	r2, [r1, #8]
 8005d62:	f44f 5340 	mov.w	r3, #12288	; 0x3000
 8005d66:	0614      	lsls	r4, r2, #24
 8005d68:	f2c4 0301 	movt	r3, #16385	; 0x4001
 8005d6c:	d4f8      	bmi.n	8005d60 <Lcd_Init+0x11b4>
 8005d6e:	f44f 6200 	mov.w	r2, #2048	; 0x800
 8005d72:	f2c4 0201 	movt	r2, #16385	; 0x4001
 8005d76:	68d4      	ldr	r4, [r2, #12]
 8005d78:	f44f 6140 	mov.w	r1, #3072	; 0xc00
 8005d7c:	f044 0410 	orr.w	r4, r4, #16
 8005d80:	60d4      	str	r4, [r2, #12]
 8005d82:	68d4      	ldr	r4, [r2, #12]
 8005d84:	f2c4 0101 	movt	r1, #16385	; 0x4001
 8005d88:	f024 0410 	bic.w	r4, r4, #16
 8005d8c:	60d4      	str	r4, [r2, #12]
 8005d8e:	68ca      	ldr	r2, [r1, #12]
 8005d90:	241a      	movs	r4, #26
 8005d92:	f442 7200 	orr.w	r2, r2, #512	; 0x200
 8005d96:	60ca      	str	r2, [r1, #12]
 8005d98:	461a      	mov	r2, r3
 8005d9a:	819c      	strh	r4, [r3, #12]
 8005d9c:	8913      	ldrh	r3, [r2, #8]
 8005d9e:	0799      	lsls	r1, r3, #30
 8005da0:	d5fc      	bpl.n	8005d9c <Lcd_Init+0x11f0>
 8005da2:	f44f 5140 	mov.w	r1, #12288	; 0x3000
 8005da6:	f2c4 0101 	movt	r1, #16385	; 0x4001
 8005daa:	890a      	ldrh	r2, [r1, #8]
 8005dac:	f44f 5340 	mov.w	r3, #12288	; 0x3000
 8005db0:	0612      	lsls	r2, r2, #24
 8005db2:	f2c4 0301 	movt	r3, #16385	; 0x4001
 8005db6:	d4f8      	bmi.n	8005daa <Lcd_Init+0x11fe>
 8005db8:	f44f 6200 	mov.w	r2, #2048	; 0x800
 8005dbc:	f2c4 0201 	movt	r2, #16385	; 0x4001
 8005dc0:	68d4      	ldr	r4, [r2, #12]
 8005dc2:	f44f 6140 	mov.w	r1, #3072	; 0xc00
 8005dc6:	f044 0410 	orr.w	r4, r4, #16
 8005dca:	60d4      	str	r4, [r2, #12]
 8005dcc:	68d4      	ldr	r4, [r2, #12]
 8005dce:	f2c4 0101 	movt	r1, #16385	; 0x4001
 8005dd2:	f024 0410 	bic.w	r4, r4, #16
 8005dd6:	60d4      	str	r4, [r2, #12]
 8005dd8:	68ca      	ldr	r2, [r1, #12]
 8005dda:	240a      	movs	r4, #10
 8005ddc:	f442 7200 	orr.w	r2, r2, #512	; 0x200
 8005de0:	60ca      	str	r2, [r1, #12]
 8005de2:	461a      	mov	r2, r3
 8005de4:	819c      	strh	r4, [r3, #12]
 8005de6:	8913      	ldrh	r3, [r2, #8]
 8005de8:	079d      	lsls	r5, r3, #30
 8005dea:	d5fc      	bpl.n	8005de6 <Lcd_Init+0x123a>
 8005dec:	f44f 5140 	mov.w	r1, #12288	; 0x3000
 8005df0:	f2c4 0101 	movt	r1, #16385	; 0x4001
 8005df4:	890a      	ldrh	r2, [r1, #8]
 8005df6:	f44f 5340 	mov.w	r3, #12288	; 0x3000
 8005dfa:	0614      	lsls	r4, r2, #24
 8005dfc:	f2c4 0301 	movt	r3, #16385	; 0x4001
 8005e00:	d4f8      	bmi.n	8005df4 <Lcd_Init+0x1248>
 8005e02:	f44f 6200 	mov.w	r2, #2048	; 0x800
 8005e06:	f2c4 0201 	movt	r2, #16385	; 0x4001
 8005e0a:	68d4      	ldr	r4, [r2, #12]
 8005e0c:	f44f 6140 	mov.w	r1, #3072	; 0xc00
 8005e10:	f044 0410 	orr.w	r4, r4, #16
 8005e14:	60d4      	str	r4, [r2, #12]
 8005e16:	68d4      	ldr	r4, [r2, #12]
 8005e18:	f2c4 0101 	movt	r1, #16385	; 0x4001
 8005e1c:	f024 0410 	bic.w	r4, r4, #16
 8005e20:	60d4      	str	r4, [r2, #12]
 8005e22:	68ca      	ldr	r2, [r1, #12]
 8005e24:	240d      	movs	r4, #13
 8005e26:	f442 7200 	orr.w	r2, r2, #512	; 0x200
 8005e2a:	60ca      	str	r2, [r1, #12]
 8005e2c:	461a      	mov	r2, r3
 8005e2e:	819c      	strh	r4, [r3, #12]
 8005e30:	8913      	ldrh	r3, [r2, #8]
 8005e32:	0799      	lsls	r1, r3, #30
 8005e34:	d5fc      	bpl.n	8005e30 <Lcd_Init+0x1284>
 8005e36:	f44f 5140 	mov.w	r1, #12288	; 0x3000
 8005e3a:	f2c4 0101 	movt	r1, #16385	; 0x4001
 8005e3e:	890a      	ldrh	r2, [r1, #8]
 8005e40:	f44f 5340 	mov.w	r3, #12288	; 0x3000
 8005e44:	0612      	lsls	r2, r2, #24
 8005e46:	f2c4 0301 	movt	r3, #16385	; 0x4001
 8005e4a:	d4f8      	bmi.n	8005e3e <Lcd_Init+0x1292>
 8005e4c:	f44f 6200 	mov.w	r2, #2048	; 0x800
 8005e50:	f2c4 0201 	movt	r2, #16385	; 0x4001
 8005e54:	68d4      	ldr	r4, [r2, #12]
 8005e56:	f44f 6140 	mov.w	r1, #3072	; 0xc00
 8005e5a:	f044 0410 	orr.w	r4, r4, #16
 8005e5e:	60d4      	str	r4, [r2, #12]
 8005e60:	68d4      	ldr	r4, [r2, #12]
 8005e62:	f2c4 0101 	movt	r1, #16385	; 0x4001
 8005e66:	f024 0410 	bic.w	r4, r4, #16
 8005e6a:	60d4      	str	r4, [r2, #12]
 8005e6c:	68ca      	ldr	r2, [r1, #12]
 8005e6e:	2407      	movs	r4, #7
 8005e70:	f442 7200 	orr.w	r2, r2, #512	; 0x200
 8005e74:	60ca      	str	r2, [r1, #12]
 8005e76:	461a      	mov	r2, r3
 8005e78:	819c      	strh	r4, [r3, #12]
 8005e7a:	8913      	ldrh	r3, [r2, #8]
 8005e7c:	079d      	lsls	r5, r3, #30
 8005e7e:	d5fc      	bpl.n	8005e7a <Lcd_Init+0x12ce>
 8005e80:	f44f 5140 	mov.w	r1, #12288	; 0x3000
 8005e84:	f2c4 0101 	movt	r1, #16385	; 0x4001
 8005e88:	890a      	ldrh	r2, [r1, #8]
 8005e8a:	f44f 5340 	mov.w	r3, #12288	; 0x3000
 8005e8e:	0614      	lsls	r4, r2, #24
 8005e90:	f2c4 0301 	movt	r3, #16385	; 0x4001
 8005e94:	d4f8      	bmi.n	8005e88 <Lcd_Init+0x12dc>
 8005e96:	f44f 6200 	mov.w	r2, #2048	; 0x800
 8005e9a:	f2c4 0201 	movt	r2, #16385	; 0x4001
 8005e9e:	68d4      	ldr	r4, [r2, #12]
 8005ea0:	f44f 6140 	mov.w	r1, #3072	; 0xc00
 8005ea4:	f044 0410 	orr.w	r4, r4, #16
 8005ea8:	60d4      	str	r4, [r2, #12]
 8005eaa:	68d4      	ldr	r4, [r2, #12]
 8005eac:	f2c4 0101 	movt	r1, #16385	; 0x4001
 8005eb0:	f024 0410 	bic.w	r4, r4, #16
 8005eb4:	60d4      	str	r4, [r2, #12]
 8005eb6:	68ca      	ldr	r2, [r1, #12]
 8005eb8:	2449      	movs	r4, #73	; 0x49
 8005eba:	f442 7200 	orr.w	r2, r2, #512	; 0x200
 8005ebe:	60ca      	str	r2, [r1, #12]
 8005ec0:	461a      	mov	r2, r3
 8005ec2:	819c      	strh	r4, [r3, #12]
 8005ec4:	8913      	ldrh	r3, [r2, #8]
 8005ec6:	0799      	lsls	r1, r3, #30
 8005ec8:	d5fc      	bpl.n	8005ec4 <Lcd_Init+0x1318>
 8005eca:	f44f 5140 	mov.w	r1, #12288	; 0x3000
 8005ece:	f2c4 0101 	movt	r1, #16385	; 0x4001
 8005ed2:	890a      	ldrh	r2, [r1, #8]
 8005ed4:	f44f 5340 	mov.w	r3, #12288	; 0x3000
 8005ed8:	0612      	lsls	r2, r2, #24
 8005eda:	f2c4 0301 	movt	r3, #16385	; 0x4001
 8005ede:	d4f8      	bmi.n	8005ed2 <Lcd_Init+0x1326>
 8005ee0:	f44f 6200 	mov.w	r2, #2048	; 0x800
 8005ee4:	f2c4 0201 	movt	r2, #16385	; 0x4001
 8005ee8:	68d4      	ldr	r4, [r2, #12]
 8005eea:	f44f 6140 	mov.w	r1, #3072	; 0xc00
 8005eee:	f044 0410 	orr.w	r4, r4, #16
 8005ef2:	60d4      	str	r4, [r2, #12]
 8005ef4:	68d4      	ldr	r4, [r2, #12]
 8005ef6:	f2c4 0101 	movt	r1, #16385	; 0x4001
 8005efa:	f024 0410 	bic.w	r4, r4, #16
 8005efe:	60d4      	str	r4, [r2, #12]
 8005f00:	68ca      	ldr	r2, [r1, #12]
 8005f02:	2466      	movs	r4, #102	; 0x66
 8005f04:	f442 7200 	orr.w	r2, r2, #512	; 0x200
 8005f08:	60ca      	str	r2, [r1, #12]
 8005f0a:	461a      	mov	r2, r3
 8005f0c:	819c      	strh	r4, [r3, #12]
 8005f0e:	8913      	ldrh	r3, [r2, #8]
 8005f10:	079d      	lsls	r5, r3, #30
 8005f12:	d5fc      	bpl.n	8005f0e <Lcd_Init+0x1362>
 8005f14:	f44f 5140 	mov.w	r1, #12288	; 0x3000
 8005f18:	f2c4 0101 	movt	r1, #16385	; 0x4001
 8005f1c:	890a      	ldrh	r2, [r1, #8]
 8005f1e:	f44f 5340 	mov.w	r3, #12288	; 0x3000
 8005f22:	0614      	lsls	r4, r2, #24
 8005f24:	f2c4 0301 	movt	r3, #16385	; 0x4001
 8005f28:	d4f8      	bmi.n	8005f1c <Lcd_Init+0x1370>
 8005f2a:	f44f 6200 	mov.w	r2, #2048	; 0x800
 8005f2e:	f2c4 0201 	movt	r2, #16385	; 0x4001
 8005f32:	68d4      	ldr	r4, [r2, #12]
 8005f34:	f44f 6140 	mov.w	r1, #3072	; 0xc00
 8005f38:	f044 0410 	orr.w	r4, r4, #16
 8005f3c:	60d4      	str	r4, [r2, #12]
 8005f3e:	68d4      	ldr	r4, [r2, #12]
 8005f40:	f2c4 0101 	movt	r1, #16385	; 0x4001
 8005f44:	f024 0410 	bic.w	r4, r4, #16
 8005f48:	60d4      	str	r4, [r2, #12]
 8005f4a:	68ca      	ldr	r2, [r1, #12]
 8005f4c:	243b      	movs	r4, #59	; 0x3b
 8005f4e:	f442 7200 	orr.w	r2, r2, #512	; 0x200
 8005f52:	60ca      	str	r2, [r1, #12]
 8005f54:	461a      	mov	r2, r3
 8005f56:	819c      	strh	r4, [r3, #12]
 8005f58:	8913      	ldrh	r3, [r2, #8]
 8005f5a:	0799      	lsls	r1, r3, #30
 8005f5c:	d5fc      	bpl.n	8005f58 <Lcd_Init+0x13ac>
 8005f5e:	f44f 5140 	mov.w	r1, #12288	; 0x3000
 8005f62:	f2c4 0101 	movt	r1, #16385	; 0x4001
 8005f66:	890a      	ldrh	r2, [r1, #8]
 8005f68:	f44f 5340 	mov.w	r3, #12288	; 0x3000
 8005f6c:	0612      	lsls	r2, r2, #24
 8005f6e:	f2c4 0301 	movt	r3, #16385	; 0x4001
 8005f72:	d4f8      	bmi.n	8005f66 <Lcd_Init+0x13ba>
 8005f74:	f44f 6200 	mov.w	r2, #2048	; 0x800
 8005f78:	f2c4 0201 	movt	r2, #16385	; 0x4001
 8005f7c:	68d4      	ldr	r4, [r2, #12]
 8005f7e:	f44f 6140 	mov.w	r1, #3072	; 0xc00
 8005f82:	f044 0410 	orr.w	r4, r4, #16
 8005f86:	60d4      	str	r4, [r2, #12]
 8005f88:	68d4      	ldr	r4, [r2, #12]
 8005f8a:	f2c4 0101 	movt	r1, #16385	; 0x4001
 8005f8e:	f024 0410 	bic.w	r4, r4, #16
 8005f92:	60d4      	str	r4, [r2, #12]
 8005f94:	68ca      	ldr	r2, [r1, #12]
 8005f96:	2407      	movs	r4, #7
 8005f98:	f442 7200 	orr.w	r2, r2, #512	; 0x200
 8005f9c:	60ca      	str	r2, [r1, #12]
 8005f9e:	461a      	mov	r2, r3
 8005fa0:	819c      	strh	r4, [r3, #12]
 8005fa2:	8913      	ldrh	r3, [r2, #8]
 8005fa4:	079d      	lsls	r5, r3, #30
 8005fa6:	d5fc      	bpl.n	8005fa2 <Lcd_Init+0x13f6>
 8005fa8:	f44f 5140 	mov.w	r1, #12288	; 0x3000
 8005fac:	f2c4 0101 	movt	r1, #16385	; 0x4001
 8005fb0:	890a      	ldrh	r2, [r1, #8]
 8005fb2:	f44f 5340 	mov.w	r3, #12288	; 0x3000
 8005fb6:	0614      	lsls	r4, r2, #24
 8005fb8:	f2c4 0301 	movt	r3, #16385	; 0x4001
 8005fbc:	d4f8      	bmi.n	8005fb0 <Lcd_Init+0x1404>
 8005fbe:	f44f 6200 	mov.w	r2, #2048	; 0x800
 8005fc2:	f2c4 0201 	movt	r2, #16385	; 0x4001
 8005fc6:	68d4      	ldr	r4, [r2, #12]
 8005fc8:	f44f 6140 	mov.w	r1, #3072	; 0xc00
 8005fcc:	f044 0410 	orr.w	r4, r4, #16
 8005fd0:	60d4      	str	r4, [r2, #12]
 8005fd2:	68d4      	ldr	r4, [r2, #12]
 8005fd4:	f2c4 0101 	movt	r1, #16385	; 0x4001
 8005fd8:	f024 0410 	bic.w	r4, r4, #16
 8005fdc:	60d4      	str	r4, [r2, #12]
 8005fde:	68ca      	ldr	r2, [r1, #12]
 8005fe0:	2411      	movs	r4, #17
 8005fe2:	f442 7200 	orr.w	r2, r2, #512	; 0x200
 8005fe6:	60ca      	str	r2, [r1, #12]
 8005fe8:	461a      	mov	r2, r3
 8005fea:	819c      	strh	r4, [r3, #12]
 8005fec:	8913      	ldrh	r3, [r2, #8]
 8005fee:	0799      	lsls	r1, r3, #30
 8005ff0:	d5fc      	bpl.n	8005fec <Lcd_Init+0x1440>
 8005ff2:	f44f 5140 	mov.w	r1, #12288	; 0x3000
 8005ff6:	f2c4 0101 	movt	r1, #16385	; 0x4001
 8005ffa:	890a      	ldrh	r2, [r1, #8]
 8005ffc:	f44f 5340 	mov.w	r3, #12288	; 0x3000
 8006000:	0612      	lsls	r2, r2, #24
 8006002:	f2c4 0301 	movt	r3, #16385	; 0x4001
 8006006:	d4f8      	bmi.n	8005ffa <Lcd_Init+0x144e>
 8006008:	f44f 6200 	mov.w	r2, #2048	; 0x800
 800600c:	f2c4 0201 	movt	r2, #16385	; 0x4001
 8006010:	68d4      	ldr	r4, [r2, #12]
 8006012:	f44f 6140 	mov.w	r1, #3072	; 0xc00
 8006016:	f044 0410 	orr.w	r4, r4, #16
 800601a:	60d4      	str	r4, [r2, #12]
 800601c:	68d4      	ldr	r4, [r2, #12]
 800601e:	f2c4 0101 	movt	r1, #16385	; 0x4001
 8006022:	f024 0410 	bic.w	r4, r4, #16
 8006026:	60d4      	str	r4, [r2, #12]
 8006028:	68ca      	ldr	r2, [r1, #12]
 800602a:	2401      	movs	r4, #1
 800602c:	f442 7200 	orr.w	r2, r2, #512	; 0x200
 8006030:	60ca      	str	r2, [r1, #12]
 8006032:	461a      	mov	r2, r3
 8006034:	819c      	strh	r4, [r3, #12]
 8006036:	8913      	ldrh	r3, [r2, #8]
 8006038:	079d      	lsls	r5, r3, #30
 800603a:	d5fc      	bpl.n	8006036 <Lcd_Init+0x148a>
 800603c:	f44f 5140 	mov.w	r1, #12288	; 0x3000
 8006040:	f2c4 0101 	movt	r1, #16385	; 0x4001
 8006044:	890a      	ldrh	r2, [r1, #8]
 8006046:	f44f 5340 	mov.w	r3, #12288	; 0x3000
 800604a:	0614      	lsls	r4, r2, #24
 800604c:	f2c4 0301 	movt	r3, #16385	; 0x4001
 8006050:	d4f8      	bmi.n	8006044 <Lcd_Init+0x1498>
 8006052:	f44f 6200 	mov.w	r2, #2048	; 0x800
 8006056:	f2c4 0201 	movt	r2, #16385	; 0x4001
 800605a:	68d4      	ldr	r4, [r2, #12]
 800605c:	f44f 6140 	mov.w	r1, #3072	; 0xc00
 8006060:	f044 0410 	orr.w	r4, r4, #16
 8006064:	60d4      	str	r4, [r2, #12]
 8006066:	68d4      	ldr	r4, [r2, #12]
 8006068:	f2c4 0101 	movt	r1, #16385	; 0x4001
 800606c:	f024 0410 	bic.w	r4, r4, #16
 8006070:	60d4      	str	r4, [r2, #12]
 8006072:	68ca      	ldr	r2, [r1, #12]
 8006074:	2409      	movs	r4, #9
 8006076:	f442 7200 	orr.w	r2, r2, #512	; 0x200
 800607a:	60ca      	str	r2, [r1, #12]
 800607c:	461a      	mov	r2, r3
 800607e:	819c      	strh	r4, [r3, #12]
 8006080:	8913      	ldrh	r3, [r2, #8]
 8006082:	0799      	lsls	r1, r3, #30
 8006084:	d5fc      	bpl.n	8006080 <Lcd_Init+0x14d4>
 8006086:	f44f 5140 	mov.w	r1, #12288	; 0x3000
 800608a:	f2c4 0101 	movt	r1, #16385	; 0x4001
 800608e:	890a      	ldrh	r2, [r1, #8]
 8006090:	f44f 5340 	mov.w	r3, #12288	; 0x3000
 8006094:	0612      	lsls	r2, r2, #24
 8006096:	f2c4 0301 	movt	r3, #16385	; 0x4001
 800609a:	d4f8      	bmi.n	800608e <Lcd_Init+0x14e2>
 800609c:	f44f 6200 	mov.w	r2, #2048	; 0x800
 80060a0:	f2c4 0201 	movt	r2, #16385	; 0x4001
 80060a4:	68d4      	ldr	r4, [r2, #12]
 80060a6:	f44f 6140 	mov.w	r1, #3072	; 0xc00
 80060aa:	f044 0410 	orr.w	r4, r4, #16
 80060ae:	60d4      	str	r4, [r2, #12]
 80060b0:	68d4      	ldr	r4, [r2, #12]
 80060b2:	f2c4 0101 	movt	r1, #16385	; 0x4001
 80060b6:	f024 0410 	bic.w	r4, r4, #16
 80060ba:	60d4      	str	r4, [r2, #12]
 80060bc:	68ca      	ldr	r2, [r1, #12]
 80060be:	2405      	movs	r4, #5
 80060c0:	f442 7200 	orr.w	r2, r2, #512	; 0x200
 80060c4:	60ca      	str	r2, [r1, #12]
 80060c6:	461a      	mov	r2, r3
 80060c8:	819c      	strh	r4, [r3, #12]
 80060ca:	8913      	ldrh	r3, [r2, #8]
 80060cc:	079d      	lsls	r5, r3, #30
 80060ce:	d5fc      	bpl.n	80060ca <Lcd_Init+0x151e>
 80060d0:	f44f 5140 	mov.w	r1, #12288	; 0x3000
 80060d4:	f2c4 0101 	movt	r1, #16385	; 0x4001
 80060d8:	890a      	ldrh	r2, [r1, #8]
 80060da:	f44f 5340 	mov.w	r3, #12288	; 0x3000
 80060de:	0614      	lsls	r4, r2, #24
 80060e0:	f2c4 0301 	movt	r3, #16385	; 0x4001
 80060e4:	d4f8      	bmi.n	80060d8 <Lcd_Init+0x152c>
 80060e6:	f44f 6200 	mov.w	r2, #2048	; 0x800
 80060ea:	f2c4 0201 	movt	r2, #16385	; 0x4001
 80060ee:	68d4      	ldr	r4, [r2, #12]
 80060f0:	f44f 6140 	mov.w	r1, #3072	; 0xc00
 80060f4:	f044 0410 	orr.w	r4, r4, #16
 80060f8:	60d4      	str	r4, [r2, #12]
 80060fa:	68d4      	ldr	r4, [r2, #12]
 80060fc:	f2c4 0101 	movt	r1, #16385	; 0x4001
 8006100:	f024 0410 	bic.w	r4, r4, #16
 8006104:	60d4      	str	r4, [r2, #12]
 8006106:	68ca      	ldr	r2, [r1, #12]
 8006108:	2404      	movs	r4, #4
 800610a:	f442 7200 	orr.w	r2, r2, #512	; 0x200
 800610e:	60ca      	str	r2, [r1, #12]
 8006110:	461a      	mov	r2, r3
 8006112:	819c      	strh	r4, [r3, #12]
 8006114:	8913      	ldrh	r3, [r2, #8]
 8006116:	0799      	lsls	r1, r3, #30
 8006118:	d5fc      	bpl.n	8006114 <Lcd_Init+0x1568>
 800611a:	f44f 5140 	mov.w	r1, #12288	; 0x3000
 800611e:	f2c4 0101 	movt	r1, #16385	; 0x4001
 8006122:	890a      	ldrh	r2, [r1, #8]
 8006124:	f44f 5340 	mov.w	r3, #12288	; 0x3000
 8006128:	0612      	lsls	r2, r2, #24
 800612a:	f2c4 0301 	movt	r3, #16385	; 0x4001
 800612e:	d4f8      	bmi.n	8006122 <Lcd_Init+0x1576>
 8006130:	f44f 6200 	mov.w	r2, #2048	; 0x800
 8006134:	f2c4 0201 	movt	r2, #16385	; 0x4001
 8006138:	68d4      	ldr	r4, [r2, #12]
 800613a:	f44f 6140 	mov.w	r1, #3072	; 0xc00
 800613e:	f044 0410 	orr.w	r4, r4, #16
 8006142:	60d4      	str	r4, [r2, #12]
 8006144:	68d4      	ldr	r4, [r2, #12]
 8006146:	f2c4 0101 	movt	r1, #16385	; 0x4001
 800614a:	f024 0410 	bic.w	r4, r4, #16
 800614e:	60d4      	str	r4, [r2, #12]
 8006150:	68ca      	ldr	r2, [r1, #12]
 8006152:	24e1      	movs	r4, #225	; 0xe1
 8006154:	f422 7200 	bic.w	r2, r2, #512	; 0x200
 8006158:	60ca      	str	r2, [r1, #12]
 800615a:	461a      	mov	r2, r3
 800615c:	819c      	strh	r4, [r3, #12]
 800615e:	8913      	ldrh	r3, [r2, #8]
 8006160:	079b      	lsls	r3, r3, #30
 8006162:	d5fc      	bpl.n	800615e <Lcd_Init+0x15b2>
 8006164:	f44f 5140 	mov.w	r1, #12288	; 0x3000
 8006168:	f2c4 0101 	movt	r1, #16385	; 0x4001
 800616c:	890a      	ldrh	r2, [r1, #8]
 800616e:	f44f 5340 	mov.w	r3, #12288	; 0x3000
 8006172:	f002 0280 	and.w	r2, r2, #128	; 0x80
 8006176:	b292      	uxth	r2, r2
 8006178:	f2c4 0301 	movt	r3, #16385	; 0x4001
 800617c:	2a00      	cmp	r2, #0
 800617e:	d1f5      	bne.n	800616c <Lcd_Init+0x15c0>
 8006180:	f44f 6100 	mov.w	r1, #2048	; 0x800
 8006184:	f2c4 0101 	movt	r1, #16385	; 0x4001
 8006188:	68cd      	ldr	r5, [r1, #12]
 800618a:	f44f 6440 	mov.w	r4, #3072	; 0xc00
 800618e:	f045 0510 	orr.w	r5, r5, #16
 8006192:	60cd      	str	r5, [r1, #12]
 8006194:	68cd      	ldr	r5, [r1, #12]
 8006196:	f2c4 0401 	movt	r4, #16385	; 0x4001
 800619a:	f025 0510 	bic.w	r5, r5, #16
 800619e:	60cd      	str	r5, [r1, #12]
 80061a0:	68e5      	ldr	r5, [r4, #12]
 80061a2:	4619      	mov	r1, r3
 80061a4:	f445 7500 	orr.w	r5, r5, #512	; 0x200
 80061a8:	60e5      	str	r5, [r4, #12]
 80061aa:	819a      	strh	r2, [r3, #12]
 80061ac:	890b      	ldrh	r3, [r1, #8]
 80061ae:	079d      	lsls	r5, r3, #30
 80061b0:	d5fc      	bpl.n	80061ac <Lcd_Init+0x1600>
 80061b2:	f44f 5140 	mov.w	r1, #12288	; 0x3000
 80061b6:	f2c4 0101 	movt	r1, #16385	; 0x4001
 80061ba:	890a      	ldrh	r2, [r1, #8]
 80061bc:	f44f 5340 	mov.w	r3, #12288	; 0x3000
 80061c0:	0614      	lsls	r4, r2, #24
 80061c2:	f2c4 0301 	movt	r3, #16385	; 0x4001
 80061c6:	d4f8      	bmi.n	80061ba <Lcd_Init+0x160e>
 80061c8:	f44f 6200 	mov.w	r2, #2048	; 0x800
 80061cc:	f2c4 0201 	movt	r2, #16385	; 0x4001
 80061d0:	68d4      	ldr	r4, [r2, #12]
 80061d2:	f44f 6140 	mov.w	r1, #3072	; 0xc00
 80061d6:	f044 0410 	orr.w	r4, r4, #16
 80061da:	60d4      	str	r4, [r2, #12]
 80061dc:	68d4      	ldr	r4, [r2, #12]
 80061de:	f2c4 0101 	movt	r1, #16385	; 0x4001
 80061e2:	f024 0410 	bic.w	r4, r4, #16
 80061e6:	60d4      	str	r4, [r2, #12]
 80061e8:	68ca      	ldr	r2, [r1, #12]
 80061ea:	2418      	movs	r4, #24
 80061ec:	f442 7200 	orr.w	r2, r2, #512	; 0x200
 80061f0:	60ca      	str	r2, [r1, #12]
 80061f2:	461a      	mov	r2, r3
 80061f4:	819c      	strh	r4, [r3, #12]
 80061f6:	8913      	ldrh	r3, [r2, #8]
 80061f8:	0799      	lsls	r1, r3, #30
 80061fa:	d5fc      	bpl.n	80061f6 <Lcd_Init+0x164a>
 80061fc:	f44f 5140 	mov.w	r1, #12288	; 0x3000
 8006200:	f2c4 0101 	movt	r1, #16385	; 0x4001
 8006204:	890a      	ldrh	r2, [r1, #8]
 8006206:	f44f 5340 	mov.w	r3, #12288	; 0x3000
 800620a:	0612      	lsls	r2, r2, #24
 800620c:	f2c4 0301 	movt	r3, #16385	; 0x4001
 8006210:	d4f8      	bmi.n	8006204 <Lcd_Init+0x1658>
 8006212:	f44f 6200 	mov.w	r2, #2048	; 0x800
 8006216:	f2c4 0201 	movt	r2, #16385	; 0x4001
 800621a:	68d4      	ldr	r4, [r2, #12]
 800621c:	f44f 6140 	mov.w	r1, #3072	; 0xc00
 8006220:	f044 0410 	orr.w	r4, r4, #16
 8006224:	60d4      	str	r4, [r2, #12]
 8006226:	68d4      	ldr	r4, [r2, #12]
 8006228:	f2c4 0101 	movt	r1, #16385	; 0x4001
 800622c:	f024 0410 	bic.w	r4, r4, #16
 8006230:	60d4      	str	r4, [r2, #12]
 8006232:	68ca      	ldr	r2, [r1, #12]
 8006234:	241d      	movs	r4, #29
 8006236:	f442 7200 	orr.w	r2, r2, #512	; 0x200
 800623a:	60ca      	str	r2, [r1, #12]
 800623c:	461a      	mov	r2, r3
 800623e:	819c      	strh	r4, [r3, #12]
 8006240:	8913      	ldrh	r3, [r2, #8]
 8006242:	079d      	lsls	r5, r3, #30
 8006244:	d5fc      	bpl.n	8006240 <Lcd_Init+0x1694>
 8006246:	f44f 5140 	mov.w	r1, #12288	; 0x3000
 800624a:	f2c4 0101 	movt	r1, #16385	; 0x4001
 800624e:	890a      	ldrh	r2, [r1, #8]
 8006250:	f44f 5340 	mov.w	r3, #12288	; 0x3000
 8006254:	0614      	lsls	r4, r2, #24
 8006256:	f2c4 0301 	movt	r3, #16385	; 0x4001
 800625a:	d4f8      	bmi.n	800624e <Lcd_Init+0x16a2>
 800625c:	f44f 6200 	mov.w	r2, #2048	; 0x800
 8006260:	f2c4 0201 	movt	r2, #16385	; 0x4001
 8006264:	68d4      	ldr	r4, [r2, #12]
 8006266:	f44f 6140 	mov.w	r1, #3072	; 0xc00
 800626a:	f044 0410 	orr.w	r4, r4, #16
 800626e:	60d4      	str	r4, [r2, #12]
 8006270:	68d4      	ldr	r4, [r2, #12]
 8006272:	f2c4 0101 	movt	r1, #16385	; 0x4001
 8006276:	f024 0410 	bic.w	r4, r4, #16
 800627a:	60d4      	str	r4, [r2, #12]
 800627c:	68ca      	ldr	r2, [r1, #12]
 800627e:	2402      	movs	r4, #2
 8006280:	f442 7200 	orr.w	r2, r2, #512	; 0x200
 8006284:	60ca      	str	r2, [r1, #12]
 8006286:	461a      	mov	r2, r3
 8006288:	819c      	strh	r4, [r3, #12]
 800628a:	8913      	ldrh	r3, [r2, #8]
 800628c:	0799      	lsls	r1, r3, #30
 800628e:	d5fc      	bpl.n	800628a <Lcd_Init+0x16de>
 8006290:	f44f 5140 	mov.w	r1, #12288	; 0x3000
 8006294:	f2c4 0101 	movt	r1, #16385	; 0x4001
 8006298:	890a      	ldrh	r2, [r1, #8]
 800629a:	f44f 5340 	mov.w	r3, #12288	; 0x3000
 800629e:	0612      	lsls	r2, r2, #24
 80062a0:	f2c4 0301 	movt	r3, #16385	; 0x4001
 80062a4:	d4f8      	bmi.n	8006298 <Lcd_Init+0x16ec>
 80062a6:	f44f 6200 	mov.w	r2, #2048	; 0x800
 80062aa:	f2c4 0201 	movt	r2, #16385	; 0x4001
 80062ae:	68d4      	ldr	r4, [r2, #12]
 80062b0:	f44f 6140 	mov.w	r1, #3072	; 0xc00
 80062b4:	f044 0410 	orr.w	r4, r4, #16
 80062b8:	60d4      	str	r4, [r2, #12]
 80062ba:	68d4      	ldr	r4, [r2, #12]
 80062bc:	f2c4 0101 	movt	r1, #16385	; 0x4001
 80062c0:	f024 0410 	bic.w	r4, r4, #16
 80062c4:	60d4      	str	r4, [r2, #12]
 80062c6:	68ca      	ldr	r2, [r1, #12]
 80062c8:	240f      	movs	r4, #15
 80062ca:	f442 7200 	orr.w	r2, r2, #512	; 0x200
 80062ce:	60ca      	str	r2, [r1, #12]
 80062d0:	461a      	mov	r2, r3
 80062d2:	819c      	strh	r4, [r3, #12]
 80062d4:	8913      	ldrh	r3, [r2, #8]
 80062d6:	079d      	lsls	r5, r3, #30
 80062d8:	d5fc      	bpl.n	80062d4 <Lcd_Init+0x1728>
 80062da:	f44f 5140 	mov.w	r1, #12288	; 0x3000
 80062de:	f2c4 0101 	movt	r1, #16385	; 0x4001
 80062e2:	890a      	ldrh	r2, [r1, #8]
 80062e4:	f44f 5340 	mov.w	r3, #12288	; 0x3000
 80062e8:	0614      	lsls	r4, r2, #24
 80062ea:	f2c4 0301 	movt	r3, #16385	; 0x4001
 80062ee:	d4f8      	bmi.n	80062e2 <Lcd_Init+0x1736>
 80062f0:	f44f 6200 	mov.w	r2, #2048	; 0x800
 80062f4:	f2c4 0201 	movt	r2, #16385	; 0x4001
 80062f8:	68d4      	ldr	r4, [r2, #12]
 80062fa:	f44f 6140 	mov.w	r1, #3072	; 0xc00
 80062fe:	f044 0410 	orr.w	r4, r4, #16
 8006302:	60d4      	str	r4, [r2, #12]
 8006304:	68d4      	ldr	r4, [r2, #12]
 8006306:	f2c4 0101 	movt	r1, #16385	; 0x4001
 800630a:	f024 0410 	bic.w	r4, r4, #16
 800630e:	60d4      	str	r4, [r2, #12]
 8006310:	68ca      	ldr	r2, [r1, #12]
 8006312:	2404      	movs	r4, #4
 8006314:	f442 7200 	orr.w	r2, r2, #512	; 0x200
 8006318:	60ca      	str	r2, [r1, #12]
 800631a:	461a      	mov	r2, r3
 800631c:	819c      	strh	r4, [r3, #12]
 800631e:	8913      	ldrh	r3, [r2, #8]
 8006320:	0799      	lsls	r1, r3, #30
 8006322:	d5fc      	bpl.n	800631e <Lcd_Init+0x1772>
 8006324:	f44f 5140 	mov.w	r1, #12288	; 0x3000
 8006328:	f2c4 0101 	movt	r1, #16385	; 0x4001
 800632c:	890a      	ldrh	r2, [r1, #8]
 800632e:	f44f 5340 	mov.w	r3, #12288	; 0x3000
 8006332:	0612      	lsls	r2, r2, #24
 8006334:	f2c4 0301 	movt	r3, #16385	; 0x4001
 8006338:	d4f8      	bmi.n	800632c <Lcd_Init+0x1780>
 800633a:	f44f 6200 	mov.w	r2, #2048	; 0x800
 800633e:	f2c4 0201 	movt	r2, #16385	; 0x4001
 8006342:	68d4      	ldr	r4, [r2, #12]
 8006344:	f44f 6140 	mov.w	r1, #3072	; 0xc00
 8006348:	f044 0410 	orr.w	r4, r4, #16
 800634c:	60d4      	str	r4, [r2, #12]
 800634e:	68d4      	ldr	r4, [r2, #12]
 8006350:	f2c4 0101 	movt	r1, #16385	; 0x4001
 8006354:	f024 0410 	bic.w	r4, r4, #16
 8006358:	60d4      	str	r4, [r2, #12]
 800635a:	68ca      	ldr	r2, [r1, #12]
 800635c:	2436      	movs	r4, #54	; 0x36
 800635e:	f442 7200 	orr.w	r2, r2, #512	; 0x200
 8006362:	60ca      	str	r2, [r1, #12]
 8006364:	461a      	mov	r2, r3
 8006366:	819c      	strh	r4, [r3, #12]
 8006368:	8913      	ldrh	r3, [r2, #8]
 800636a:	079d      	lsls	r5, r3, #30
 800636c:	d5fc      	bpl.n	8006368 <Lcd_Init+0x17bc>
 800636e:	f44f 5140 	mov.w	r1, #12288	; 0x3000
 8006372:	f2c4 0101 	movt	r1, #16385	; 0x4001
 8006376:	890a      	ldrh	r2, [r1, #8]
 8006378:	f44f 5340 	mov.w	r3, #12288	; 0x3000
 800637c:	0614      	lsls	r4, r2, #24
 800637e:	f2c4 0301 	movt	r3, #16385	; 0x4001
 8006382:	d4f8      	bmi.n	8006376 <Lcd_Init+0x17ca>
 8006384:	f44f 6200 	mov.w	r2, #2048	; 0x800
 8006388:	f2c4 0201 	movt	r2, #16385	; 0x4001
 800638c:	68d4      	ldr	r4, [r2, #12]
 800638e:	f44f 6140 	mov.w	r1, #3072	; 0xc00
 8006392:	f044 0410 	orr.w	r4, r4, #16
 8006396:	60d4      	str	r4, [r2, #12]
 8006398:	68d4      	ldr	r4, [r2, #12]
 800639a:	f2c4 0101 	movt	r1, #16385	; 0x4001
 800639e:	f024 0410 	bic.w	r4, r4, #16
 80063a2:	60d4      	str	r4, [r2, #12]
 80063a4:	68ca      	ldr	r2, [r1, #12]
 80063a6:	2413      	movs	r4, #19
 80063a8:	f442 7200 	orr.w	r2, r2, #512	; 0x200
 80063ac:	60ca      	str	r2, [r1, #12]
 80063ae:	461a      	mov	r2, r3
 80063b0:	819c      	strh	r4, [r3, #12]
 80063b2:	8913      	ldrh	r3, [r2, #8]
 80063b4:	0799      	lsls	r1, r3, #30
 80063b6:	d5fc      	bpl.n	80063b2 <Lcd_Init+0x1806>
 80063b8:	f44f 5140 	mov.w	r1, #12288	; 0x3000
 80063bc:	f2c4 0101 	movt	r1, #16385	; 0x4001
 80063c0:	890a      	ldrh	r2, [r1, #8]
 80063c2:	f44f 5340 	mov.w	r3, #12288	; 0x3000
 80063c6:	0612      	lsls	r2, r2, #24
 80063c8:	f2c4 0301 	movt	r3, #16385	; 0x4001
 80063cc:	d4f8      	bmi.n	80063c0 <Lcd_Init+0x1814>
 80063ce:	f44f 6200 	mov.w	r2, #2048	; 0x800
 80063d2:	f2c4 0201 	movt	r2, #16385	; 0x4001
 80063d6:	68d4      	ldr	r4, [r2, #12]
 80063d8:	f44f 6140 	mov.w	r1, #3072	; 0xc00
 80063dc:	f044 0410 	orr.w	r4, r4, #16
 80063e0:	60d4      	str	r4, [r2, #12]
 80063e2:	68d4      	ldr	r4, [r2, #12]
 80063e4:	f2c4 0101 	movt	r1, #16385	; 0x4001
 80063e8:	f024 0410 	bic.w	r4, r4, #16
 80063ec:	60d4      	str	r4, [r2, #12]
 80063ee:	68ca      	ldr	r2, [r1, #12]
 80063f0:	244c      	movs	r4, #76	; 0x4c
 80063f2:	f442 7200 	orr.w	r2, r2, #512	; 0x200
 80063f6:	60ca      	str	r2, [r1, #12]
 80063f8:	461a      	mov	r2, r3
 80063fa:	819c      	strh	r4, [r3, #12]
 80063fc:	8913      	ldrh	r3, [r2, #8]
 80063fe:	079d      	lsls	r5, r3, #30
 8006400:	d5fc      	bpl.n	80063fc <Lcd_Init+0x1850>
 8006402:	f44f 5140 	mov.w	r1, #12288	; 0x3000
 8006406:	f2c4 0101 	movt	r1, #16385	; 0x4001
 800640a:	890a      	ldrh	r2, [r1, #8]
 800640c:	f44f 5340 	mov.w	r3, #12288	; 0x3000
 8006410:	0614      	lsls	r4, r2, #24
 8006412:	f2c4 0301 	movt	r3, #16385	; 0x4001
 8006416:	d4f8      	bmi.n	800640a <Lcd_Init+0x185e>
 8006418:	f44f 6200 	mov.w	r2, #2048	; 0x800
 800641c:	f2c4 0201 	movt	r2, #16385	; 0x4001
 8006420:	68d4      	ldr	r4, [r2, #12]
 8006422:	f44f 6140 	mov.w	r1, #3072	; 0xc00
 8006426:	f044 0410 	orr.w	r4, r4, #16
 800642a:	60d4      	str	r4, [r2, #12]
 800642c:	68d4      	ldr	r4, [r2, #12]
 800642e:	f2c4 0101 	movt	r1, #16385	; 0x4001
 8006432:	f024 0410 	bic.w	r4, r4, #16
 8006436:	60d4      	str	r4, [r2, #12]
 8006438:	68ca      	ldr	r2, [r1, #12]
 800643a:	2407      	movs	r4, #7
 800643c:	f442 7200 	orr.w	r2, r2, #512	; 0x200
 8006440:	60ca      	str	r2, [r1, #12]
 8006442:	461a      	mov	r2, r3
 8006444:	819c      	strh	r4, [r3, #12]
 8006446:	8913      	ldrh	r3, [r2, #8]
 8006448:	0799      	lsls	r1, r3, #30
 800644a:	d5fc      	bpl.n	8006446 <Lcd_Init+0x189a>
 800644c:	f44f 5140 	mov.w	r1, #12288	; 0x3000
 8006450:	f2c4 0101 	movt	r1, #16385	; 0x4001
 8006454:	890a      	ldrh	r2, [r1, #8]
 8006456:	f44f 5340 	mov.w	r3, #12288	; 0x3000
 800645a:	0612      	lsls	r2, r2, #24
 800645c:	f2c4 0301 	movt	r3, #16385	; 0x4001
 8006460:	d4f8      	bmi.n	8006454 <Lcd_Init+0x18a8>
 8006462:	f44f 6200 	mov.w	r2, #2048	; 0x800
 8006466:	f2c4 0201 	movt	r2, #16385	; 0x4001
 800646a:	68d4      	ldr	r4, [r2, #12]
 800646c:	f44f 6140 	mov.w	r1, #3072	; 0xc00
 8006470:	f044 0410 	orr.w	r4, r4, #16
 8006474:	60d4      	str	r4, [r2, #12]
 8006476:	68d4      	ldr	r4, [r2, #12]
 8006478:	f2c4 0101 	movt	r1, #16385	; 0x4001
 800647c:	f024 0410 	bic.w	r4, r4, #16
 8006480:	60d4      	str	r4, [r2, #12]
 8006482:	68ca      	ldr	r2, [r1, #12]
 8006484:	2413      	movs	r4, #19
 8006486:	f442 7200 	orr.w	r2, r2, #512	; 0x200
 800648a:	60ca      	str	r2, [r1, #12]
 800648c:	461a      	mov	r2, r3
 800648e:	819c      	strh	r4, [r3, #12]
 8006490:	8913      	ldrh	r3, [r2, #8]
 8006492:	079d      	lsls	r5, r3, #30
 8006494:	d5fc      	bpl.n	8006490 <Lcd_Init+0x18e4>
 8006496:	f44f 5140 	mov.w	r1, #12288	; 0x3000
 800649a:	f2c4 0101 	movt	r1, #16385	; 0x4001
 800649e:	890a      	ldrh	r2, [r1, #8]
 80064a0:	f44f 5340 	mov.w	r3, #12288	; 0x3000
 80064a4:	0614      	lsls	r4, r2, #24
 80064a6:	f2c4 0301 	movt	r3, #16385	; 0x4001
 80064aa:	d4f8      	bmi.n	800649e <Lcd_Init+0x18f2>
 80064ac:	f44f 6200 	mov.w	r2, #2048	; 0x800
 80064b0:	f2c4 0201 	movt	r2, #16385	; 0x4001
 80064b4:	68d4      	ldr	r4, [r2, #12]
 80064b6:	f44f 6140 	mov.w	r1, #3072	; 0xc00
 80064ba:	f044 0410 	orr.w	r4, r4, #16
 80064be:	60d4      	str	r4, [r2, #12]
 80064c0:	68d4      	ldr	r4, [r2, #12]
 80064c2:	f2c4 0101 	movt	r1, #16385	; 0x4001
 80064c6:	f024 0410 	bic.w	r4, r4, #16
 80064ca:	60d4      	str	r4, [r2, #12]
 80064cc:	68ca      	ldr	r2, [r1, #12]
 80064ce:	240f      	movs	r4, #15
 80064d0:	f442 7200 	orr.w	r2, r2, #512	; 0x200
 80064d4:	60ca      	str	r2, [r1, #12]
 80064d6:	461a      	mov	r2, r3
 80064d8:	819c      	strh	r4, [r3, #12]
 80064da:	8913      	ldrh	r3, [r2, #8]
 80064dc:	0799      	lsls	r1, r3, #30
 80064de:	d5fc      	bpl.n	80064da <Lcd_Init+0x192e>
 80064e0:	f44f 5140 	mov.w	r1, #12288	; 0x3000
 80064e4:	f2c4 0101 	movt	r1, #16385	; 0x4001
 80064e8:	890a      	ldrh	r2, [r1, #8]
 80064ea:	f44f 5340 	mov.w	r3, #12288	; 0x3000
 80064ee:	0612      	lsls	r2, r2, #24
 80064f0:	f2c4 0301 	movt	r3, #16385	; 0x4001
 80064f4:	d4f8      	bmi.n	80064e8 <Lcd_Init+0x193c>
 80064f6:	f44f 6200 	mov.w	r2, #2048	; 0x800
 80064fa:	f2c4 0201 	movt	r2, #16385	; 0x4001
 80064fe:	68d4      	ldr	r4, [r2, #12]
 8006500:	f44f 6140 	mov.w	r1, #3072	; 0xc00
 8006504:	f044 0410 	orr.w	r4, r4, #16
 8006508:	60d4      	str	r4, [r2, #12]
 800650a:	68d4      	ldr	r4, [r2, #12]
 800650c:	f2c4 0101 	movt	r1, #16385	; 0x4001
 8006510:	f024 0410 	bic.w	r4, r4, #16
 8006514:	60d4      	str	r4, [r2, #12]
 8006516:	68ca      	ldr	r2, [r1, #12]
 8006518:	242e      	movs	r4, #46	; 0x2e
 800651a:	f442 7200 	orr.w	r2, r2, #512	; 0x200
 800651e:	60ca      	str	r2, [r1, #12]
 8006520:	461a      	mov	r2, r3
 8006522:	819c      	strh	r4, [r3, #12]
 8006524:	8913      	ldrh	r3, [r2, #8]
 8006526:	079d      	lsls	r5, r3, #30
 8006528:	d5fc      	bpl.n	8006524 <Lcd_Init+0x1978>
 800652a:	f44f 5140 	mov.w	r1, #12288	; 0x3000
 800652e:	f2c4 0101 	movt	r1, #16385	; 0x4001
 8006532:	890a      	ldrh	r2, [r1, #8]
 8006534:	f44f 5340 	mov.w	r3, #12288	; 0x3000
 8006538:	0614      	lsls	r4, r2, #24
 800653a:	f2c4 0301 	movt	r3, #16385	; 0x4001
 800653e:	d4f8      	bmi.n	8006532 <Lcd_Init+0x1986>
 8006540:	f44f 6200 	mov.w	r2, #2048	; 0x800
 8006544:	f2c4 0201 	movt	r2, #16385	; 0x4001
 8006548:	68d4      	ldr	r4, [r2, #12]
 800654a:	f44f 6140 	mov.w	r1, #3072	; 0xc00
 800654e:	f044 0410 	orr.w	r4, r4, #16
 8006552:	60d4      	str	r4, [r2, #12]
 8006554:	68d4      	ldr	r4, [r2, #12]
 8006556:	f2c4 0101 	movt	r1, #16385	; 0x4001
 800655a:	f024 0410 	bic.w	r4, r4, #16
 800655e:	60d4      	str	r4, [r2, #12]
 8006560:	68ca      	ldr	r2, [r1, #12]
 8006562:	242f      	movs	r4, #47	; 0x2f
 8006564:	f442 7200 	orr.w	r2, r2, #512	; 0x200
 8006568:	60ca      	str	r2, [r1, #12]
 800656a:	461a      	mov	r2, r3
 800656c:	819c      	strh	r4, [r3, #12]
 800656e:	8913      	ldrh	r3, [r2, #8]
 8006570:	0799      	lsls	r1, r3, #30
 8006572:	d5fc      	bpl.n	800656e <Lcd_Init+0x19c2>
 8006574:	f44f 5140 	mov.w	r1, #12288	; 0x3000
 8006578:	f2c4 0101 	movt	r1, #16385	; 0x4001
 800657c:	890a      	ldrh	r2, [r1, #8]
 800657e:	f44f 5340 	mov.w	r3, #12288	; 0x3000
 8006582:	0612      	lsls	r2, r2, #24
 8006584:	f2c4 0301 	movt	r3, #16385	; 0x4001
 8006588:	d4f8      	bmi.n	800657c <Lcd_Init+0x19d0>
 800658a:	f44f 6200 	mov.w	r2, #2048	; 0x800
 800658e:	f2c4 0201 	movt	r2, #16385	; 0x4001
 8006592:	68d4      	ldr	r4, [r2, #12]
 8006594:	f44f 6140 	mov.w	r1, #3072	; 0xc00
 8006598:	f044 0410 	orr.w	r4, r4, #16
 800659c:	60d4      	str	r4, [r2, #12]
 800659e:	68d4      	ldr	r4, [r2, #12]
 80065a0:	f2c4 0101 	movt	r1, #16385	; 0x4001
 80065a4:	f024 0410 	bic.w	r4, r4, #16
 80065a8:	60d4      	str	r4, [r2, #12]
 80065aa:	68ca      	ldr	r2, [r1, #12]
 80065ac:	2405      	movs	r4, #5
 80065ae:	f442 7200 	orr.w	r2, r2, #512	; 0x200
 80065b2:	60ca      	str	r2, [r1, #12]
 80065b4:	461a      	mov	r2, r3
 80065b6:	819c      	strh	r4, [r3, #12]
 80065b8:	8913      	ldrh	r3, [r2, #8]
 80065ba:	079d      	lsls	r5, r3, #30
 80065bc:	d5fc      	bpl.n	80065b8 <Lcd_Init+0x1a0c>
 80065be:	f44f 5140 	mov.w	r1, #12288	; 0x3000
 80065c2:	f2c4 0101 	movt	r1, #16385	; 0x4001
 80065c6:	890a      	ldrh	r2, [r1, #8]
 80065c8:	f44f 5340 	mov.w	r3, #12288	; 0x3000
 80065cc:	0614      	lsls	r4, r2, #24
 80065ce:	f2c4 0301 	movt	r3, #16385	; 0x4001
 80065d2:	d4f8      	bmi.n	80065c6 <Lcd_Init+0x1a1a>
 80065d4:	f44f 6200 	mov.w	r2, #2048	; 0x800
 80065d8:	f2c4 0201 	movt	r2, #16385	; 0x4001
 80065dc:	68d4      	ldr	r4, [r2, #12]
 80065de:	f44f 6140 	mov.w	r1, #3072	; 0xc00
 80065e2:	f044 0410 	orr.w	r4, r4, #16
 80065e6:	60d4      	str	r4, [r2, #12]
 80065e8:	68d4      	ldr	r4, [r2, #12]
 80065ea:	f2c4 0101 	movt	r1, #16385	; 0x4001
 80065ee:	f024 0410 	bic.w	r4, r4, #16
 80065f2:	60d4      	str	r4, [r2, #12]
 80065f4:	68ca      	ldr	r2, [r1, #12]
 80065f6:	242b      	movs	r4, #43	; 0x2b
 80065f8:	f422 7200 	bic.w	r2, r2, #512	; 0x200
 80065fc:	60ca      	str	r2, [r1, #12]
 80065fe:	461a      	mov	r2, r3
 8006600:	819c      	strh	r4, [r3, #12]
 8006602:	8913      	ldrh	r3, [r2, #8]
 8006604:	0799      	lsls	r1, r3, #30
 8006606:	d5fc      	bpl.n	8006602 <Lcd_Init+0x1a56>
 8006608:	f44f 5140 	mov.w	r1, #12288	; 0x3000
 800660c:	f2c4 0101 	movt	r1, #16385	; 0x4001
 8006610:	890a      	ldrh	r2, [r1, #8]
 8006612:	f44f 5340 	mov.w	r3, #12288	; 0x3000
 8006616:	f002 0280 	and.w	r2, r2, #128	; 0x80
 800661a:	b292      	uxth	r2, r2
 800661c:	f2c4 0301 	movt	r3, #16385	; 0x4001
 8006620:	2a00      	cmp	r2, #0
 8006622:	d1f5      	bne.n	8006610 <Lcd_Init+0x1a64>
 8006624:	f44f 6100 	mov.w	r1, #2048	; 0x800
 8006628:	f2c4 0101 	movt	r1, #16385	; 0x4001
 800662c:	68cd      	ldr	r5, [r1, #12]
 800662e:	f44f 6440 	mov.w	r4, #3072	; 0xc00
 8006632:	f045 0510 	orr.w	r5, r5, #16
 8006636:	60cd      	str	r5, [r1, #12]
 8006638:	68cd      	ldr	r5, [r1, #12]
 800663a:	f2c4 0401 	movt	r4, #16385	; 0x4001
 800663e:	f025 0510 	bic.w	r5, r5, #16
 8006642:	60cd      	str	r5, [r1, #12]
 8006644:	68e5      	ldr	r5, [r4, #12]
 8006646:	4619      	mov	r1, r3
 8006648:	f445 7500 	orr.w	r5, r5, #512	; 0x200
 800664c:	60e5      	str	r5, [r4, #12]
 800664e:	819a      	strh	r2, [r3, #12]
 8006650:	890b      	ldrh	r3, [r1, #8]
 8006652:	079b      	lsls	r3, r3, #30
 8006654:	d5fc      	bpl.n	8006650 <Lcd_Init+0x1aa4>
 8006656:	f44f 5140 	mov.w	r1, #12288	; 0x3000
 800665a:	f2c4 0101 	movt	r1, #16385	; 0x4001
 800665e:	890a      	ldrh	r2, [r1, #8]
 8006660:	f44f 5340 	mov.w	r3, #12288	; 0x3000
 8006664:	f002 0280 	and.w	r2, r2, #128	; 0x80
 8006668:	b292      	uxth	r2, r2
 800666a:	f2c4 0301 	movt	r3, #16385	; 0x4001
 800666e:	2a00      	cmp	r2, #0
 8006670:	d1f5      	bne.n	800665e <Lcd_Init+0x1ab2>
 8006672:	f44f 6100 	mov.w	r1, #2048	; 0x800
 8006676:	f2c4 0101 	movt	r1, #16385	; 0x4001
 800667a:	68cd      	ldr	r5, [r1, #12]
 800667c:	f44f 6440 	mov.w	r4, #3072	; 0xc00
 8006680:	f045 0510 	orr.w	r5, r5, #16
 8006684:	60cd      	str	r5, [r1, #12]
 8006686:	68cd      	ldr	r5, [r1, #12]
 8006688:	f2c4 0401 	movt	r4, #16385	; 0x4001
 800668c:	f025 0510 	bic.w	r5, r5, #16
 8006690:	60cd      	str	r5, [r1, #12]
 8006692:	68e5      	ldr	r5, [r4, #12]
 8006694:	4619      	mov	r1, r3
 8006696:	f445 7500 	orr.w	r5, r5, #512	; 0x200
 800669a:	60e5      	str	r5, [r4, #12]
 800669c:	819a      	strh	r2, [r3, #12]
 800669e:	890b      	ldrh	r3, [r1, #8]
 80066a0:	079d      	lsls	r5, r3, #30
 80066a2:	d5fc      	bpl.n	800669e <Lcd_Init+0x1af2>
 80066a4:	f44f 5140 	mov.w	r1, #12288	; 0x3000
 80066a8:	f2c4 0101 	movt	r1, #16385	; 0x4001
 80066ac:	890a      	ldrh	r2, [r1, #8]
 80066ae:	f44f 5340 	mov.w	r3, #12288	; 0x3000
 80066b2:	0614      	lsls	r4, r2, #24
 80066b4:	f2c4 0301 	movt	r3, #16385	; 0x4001
 80066b8:	d4f8      	bmi.n	80066ac <Lcd_Init+0x1b00>
 80066ba:	f44f 6200 	mov.w	r2, #2048	; 0x800
 80066be:	f2c4 0201 	movt	r2, #16385	; 0x4001
 80066c2:	68d4      	ldr	r4, [r2, #12]
 80066c4:	f44f 6140 	mov.w	r1, #3072	; 0xc00
 80066c8:	f044 0410 	orr.w	r4, r4, #16
 80066cc:	60d4      	str	r4, [r2, #12]
 80066ce:	68d4      	ldr	r4, [r2, #12]
 80066d0:	f2c4 0101 	movt	r1, #16385	; 0x4001
 80066d4:	f024 0410 	bic.w	r4, r4, #16
 80066d8:	60d4      	str	r4, [r2, #12]
 80066da:	68ca      	ldr	r2, [r1, #12]
 80066dc:	2401      	movs	r4, #1
 80066de:	f442 7200 	orr.w	r2, r2, #512	; 0x200
 80066e2:	60ca      	str	r2, [r1, #12]
 80066e4:	461a      	mov	r2, r3
 80066e6:	819c      	strh	r4, [r3, #12]
 80066e8:	8913      	ldrh	r3, [r2, #8]
 80066ea:	0799      	lsls	r1, r3, #30
 80066ec:	d5fc      	bpl.n	80066e8 <Lcd_Init+0x1b3c>
 80066ee:	f44f 5140 	mov.w	r1, #12288	; 0x3000
 80066f2:	f2c4 0101 	movt	r1, #16385	; 0x4001
 80066f6:	890a      	ldrh	r2, [r1, #8]
 80066f8:	f44f 5340 	mov.w	r3, #12288	; 0x3000
 80066fc:	0612      	lsls	r2, r2, #24
 80066fe:	f2c4 0301 	movt	r3, #16385	; 0x4001
 8006702:	d4f8      	bmi.n	80066f6 <Lcd_Init+0x1b4a>
 8006704:	f44f 6200 	mov.w	r2, #2048	; 0x800
 8006708:	f2c4 0201 	movt	r2, #16385	; 0x4001
 800670c:	68d4      	ldr	r4, [r2, #12]
 800670e:	f44f 6140 	mov.w	r1, #3072	; 0xc00
 8006712:	f044 0410 	orr.w	r4, r4, #16
 8006716:	60d4      	str	r4, [r2, #12]
 8006718:	68d4      	ldr	r4, [r2, #12]
 800671a:	f2c4 0101 	movt	r1, #16385	; 0x4001
 800671e:	f024 0410 	bic.w	r4, r4, #16
 8006722:	60d4      	str	r4, [r2, #12]
 8006724:	68ca      	ldr	r2, [r1, #12]
 8006726:	243f      	movs	r4, #63	; 0x3f
 8006728:	f442 7200 	orr.w	r2, r2, #512	; 0x200
 800672c:	60ca      	str	r2, [r1, #12]
 800672e:	461a      	mov	r2, r3
 8006730:	819c      	strh	r4, [r3, #12]
 8006732:	8913      	ldrh	r3, [r2, #8]
 8006734:	079d      	lsls	r5, r3, #30
 8006736:	d5fc      	bpl.n	8006732 <Lcd_Init+0x1b86>
 8006738:	f44f 5140 	mov.w	r1, #12288	; 0x3000
 800673c:	f2c4 0101 	movt	r1, #16385	; 0x4001
 8006740:	890a      	ldrh	r2, [r1, #8]
 8006742:	f44f 5340 	mov.w	r3, #12288	; 0x3000
 8006746:	0614      	lsls	r4, r2, #24
 8006748:	f2c4 0301 	movt	r3, #16385	; 0x4001
 800674c:	d4f8      	bmi.n	8006740 <Lcd_Init+0x1b94>
 800674e:	f44f 6200 	mov.w	r2, #2048	; 0x800
 8006752:	f2c4 0201 	movt	r2, #16385	; 0x4001
 8006756:	68d4      	ldr	r4, [r2, #12]
 8006758:	f44f 6140 	mov.w	r1, #3072	; 0xc00
 800675c:	f044 0410 	orr.w	r4, r4, #16
 8006760:	60d4      	str	r4, [r2, #12]
 8006762:	68d4      	ldr	r4, [r2, #12]
 8006764:	f2c4 0101 	movt	r1, #16385	; 0x4001
 8006768:	f024 0410 	bic.w	r4, r4, #16
 800676c:	60d4      	str	r4, [r2, #12]
 800676e:	68ca      	ldr	r2, [r1, #12]
 8006770:	242a      	movs	r4, #42	; 0x2a
 8006772:	f422 7200 	bic.w	r2, r2, #512	; 0x200
 8006776:	60ca      	str	r2, [r1, #12]
 8006778:	461a      	mov	r2, r3
 800677a:	819c      	strh	r4, [r3, #12]
 800677c:	8913      	ldrh	r3, [r2, #8]
 800677e:	0799      	lsls	r1, r3, #30
 8006780:	d5fc      	bpl.n	800677c <Lcd_Init+0x1bd0>
 8006782:	f44f 5140 	mov.w	r1, #12288	; 0x3000
 8006786:	f2c4 0101 	movt	r1, #16385	; 0x4001
 800678a:	890a      	ldrh	r2, [r1, #8]
 800678c:	f44f 5340 	mov.w	r3, #12288	; 0x3000
 8006790:	f002 0280 	and.w	r2, r2, #128	; 0x80
 8006794:	b292      	uxth	r2, r2
 8006796:	f2c4 0301 	movt	r3, #16385	; 0x4001
 800679a:	2a00      	cmp	r2, #0
 800679c:	d1f5      	bne.n	800678a <Lcd_Init+0x1bde>
 800679e:	f44f 6100 	mov.w	r1, #2048	; 0x800
 80067a2:	f2c4 0101 	movt	r1, #16385	; 0x4001
 80067a6:	68cd      	ldr	r5, [r1, #12]
 80067a8:	f44f 6440 	mov.w	r4, #3072	; 0xc00
 80067ac:	f045 0510 	orr.w	r5, r5, #16
 80067b0:	60cd      	str	r5, [r1, #12]
 80067b2:	68cd      	ldr	r5, [r1, #12]
 80067b4:	f2c4 0401 	movt	r4, #16385	; 0x4001
 80067b8:	f025 0510 	bic.w	r5, r5, #16
 80067bc:	60cd      	str	r5, [r1, #12]
 80067be:	68e5      	ldr	r5, [r4, #12]
 80067c0:	4619      	mov	r1, r3
 80067c2:	f445 7500 	orr.w	r5, r5, #512	; 0x200
 80067c6:	60e5      	str	r5, [r4, #12]
 80067c8:	819a      	strh	r2, [r3, #12]
 80067ca:	890b      	ldrh	r3, [r1, #8]
 80067cc:	079b      	lsls	r3, r3, #30
 80067ce:	d5fc      	bpl.n	80067ca <Lcd_Init+0x1c1e>
 80067d0:	f44f 5140 	mov.w	r1, #12288	; 0x3000
 80067d4:	f2c4 0101 	movt	r1, #16385	; 0x4001
 80067d8:	890a      	ldrh	r2, [r1, #8]
 80067da:	f44f 5340 	mov.w	r3, #12288	; 0x3000
 80067de:	f002 0280 	and.w	r2, r2, #128	; 0x80
 80067e2:	b292      	uxth	r2, r2
 80067e4:	f2c4 0301 	movt	r3, #16385	; 0x4001
 80067e8:	2a00      	cmp	r2, #0
 80067ea:	d1f5      	bne.n	80067d8 <Lcd_Init+0x1c2c>
 80067ec:	f44f 6100 	mov.w	r1, #2048	; 0x800
 80067f0:	f2c4 0101 	movt	r1, #16385	; 0x4001
 80067f4:	68cd      	ldr	r5, [r1, #12]
 80067f6:	f44f 6440 	mov.w	r4, #3072	; 0xc00
 80067fa:	f045 0510 	orr.w	r5, r5, #16
 80067fe:	60cd      	str	r5, [r1, #12]
 8006800:	68cd      	ldr	r5, [r1, #12]
 8006802:	f2c4 0401 	movt	r4, #16385	; 0x4001
 8006806:	f025 0510 	bic.w	r5, r5, #16
 800680a:	60cd      	str	r5, [r1, #12]
 800680c:	68e5      	ldr	r5, [r4, #12]
 800680e:	4619      	mov	r1, r3
 8006810:	f445 7500 	orr.w	r5, r5, #512	; 0x200
 8006814:	60e5      	str	r5, [r4, #12]
 8006816:	819a      	strh	r2, [r3, #12]
 8006818:	890b      	ldrh	r3, [r1, #8]
 800681a:	079d      	lsls	r5, r3, #30
 800681c:	d5fc      	bpl.n	8006818 <Lcd_Init+0x1c6c>
 800681e:	f44f 5140 	mov.w	r1, #12288	; 0x3000
 8006822:	f2c4 0101 	movt	r1, #16385	; 0x4001
 8006826:	890a      	ldrh	r2, [r1, #8]
 8006828:	f44f 5340 	mov.w	r3, #12288	; 0x3000
 800682c:	f002 0280 	and.w	r2, r2, #128	; 0x80
 8006830:	b292      	uxth	r2, r2
 8006832:	f2c4 0301 	movt	r3, #16385	; 0x4001
 8006836:	2a00      	cmp	r2, #0
 8006838:	d1f5      	bne.n	8006826 <Lcd_Init+0x1c7a>
 800683a:	f44f 6100 	mov.w	r1, #2048	; 0x800
 800683e:	f2c4 0101 	movt	r1, #16385	; 0x4001
 8006842:	68cd      	ldr	r5, [r1, #12]
 8006844:	f44f 6440 	mov.w	r4, #3072	; 0xc00
 8006848:	f045 0510 	orr.w	r5, r5, #16
 800684c:	60cd      	str	r5, [r1, #12]
 800684e:	68cd      	ldr	r5, [r1, #12]
 8006850:	f2c4 0401 	movt	r4, #16385	; 0x4001
 8006854:	f025 0510 	bic.w	r5, r5, #16
 8006858:	60cd      	str	r5, [r1, #12]
 800685a:	68e5      	ldr	r5, [r4, #12]
 800685c:	4619      	mov	r1, r3
 800685e:	f445 7500 	orr.w	r5, r5, #512	; 0x200
 8006862:	60e5      	str	r5, [r4, #12]
 8006864:	819a      	strh	r2, [r3, #12]
 8006866:	890b      	ldrh	r3, [r1, #8]
 8006868:	079c      	lsls	r4, r3, #30
 800686a:	d5fc      	bpl.n	8006866 <Lcd_Init+0x1cba>
 800686c:	f44f 5140 	mov.w	r1, #12288	; 0x3000
 8006870:	f2c4 0101 	movt	r1, #16385	; 0x4001
 8006874:	890a      	ldrh	r2, [r1, #8]
 8006876:	f44f 5340 	mov.w	r3, #12288	; 0x3000
 800687a:	0612      	lsls	r2, r2, #24
 800687c:	f2c4 0301 	movt	r3, #16385	; 0x4001
 8006880:	d4f8      	bmi.n	8006874 <Lcd_Init+0x1cc8>
 8006882:	f44f 6200 	mov.w	r2, #2048	; 0x800
 8006886:	f2c4 0201 	movt	r2, #16385	; 0x4001
 800688a:	68d4      	ldr	r4, [r2, #12]
 800688c:	f44f 6140 	mov.w	r1, #3072	; 0xc00
 8006890:	f044 0410 	orr.w	r4, r4, #16
 8006894:	60d4      	str	r4, [r2, #12]
 8006896:	68d4      	ldr	r4, [r2, #12]
 8006898:	f2c4 0101 	movt	r1, #16385	; 0x4001
 800689c:	f024 0410 	bic.w	r4, r4, #16
 80068a0:	60d4      	str	r4, [r2, #12]
 80068a2:	68ca      	ldr	r2, [r1, #12]
 80068a4:	24ef      	movs	r4, #239	; 0xef
 80068a6:	f442 7200 	orr.w	r2, r2, #512	; 0x200
 80068aa:	60ca      	str	r2, [r1, #12]
 80068ac:	461a      	mov	r2, r3
 80068ae:	819c      	strh	r4, [r3, #12]
 80068b0:	8913      	ldrh	r3, [r2, #8]
 80068b2:	079b      	lsls	r3, r3, #30
 80068b4:	d5fc      	bpl.n	80068b0 <Lcd_Init+0x1d04>
 80068b6:	f44f 5140 	mov.w	r1, #12288	; 0x3000
 80068ba:	f2c4 0101 	movt	r1, #16385	; 0x4001
 80068be:	890a      	ldrh	r2, [r1, #8]
 80068c0:	f44f 5340 	mov.w	r3, #12288	; 0x3000
 80068c4:	0615      	lsls	r5, r2, #24
 80068c6:	f2c4 0301 	movt	r3, #16385	; 0x4001
 80068ca:	d4f8      	bmi.n	80068be <Lcd_Init+0x1d12>
 80068cc:	f44f 6200 	mov.w	r2, #2048	; 0x800
 80068d0:	f2c4 0201 	movt	r2, #16385	; 0x4001
 80068d4:	68d4      	ldr	r4, [r2, #12]
 80068d6:	f44f 6140 	mov.w	r1, #3072	; 0xc00
 80068da:	f044 0410 	orr.w	r4, r4, #16
 80068de:	60d4      	str	r4, [r2, #12]
 80068e0:	68d4      	ldr	r4, [r2, #12]
 80068e2:	f2c4 0101 	movt	r1, #16385	; 0x4001
 80068e6:	f024 0410 	bic.w	r4, r4, #16
 80068ea:	60d4      	str	r4, [r2, #12]
 80068ec:	68ca      	ldr	r2, [r1, #12]
 80068ee:	2411      	movs	r4, #17
 80068f0:	f422 7200 	bic.w	r2, r2, #512	; 0x200
 80068f4:	60ca      	str	r2, [r1, #12]
 80068f6:	461a      	mov	r2, r3
 80068f8:	819c      	strh	r4, [r3, #12]
 80068fa:	8913      	ldrh	r3, [r2, #8]
 80068fc:	079c      	lsls	r4, r3, #30
 80068fe:	d5fc      	bpl.n	80068fa <Lcd_Init+0x1d4e>
 8006900:	f44f 5240 	mov.w	r2, #12288	; 0x3000
 8006904:	f2c4 0201 	movt	r2, #16385	; 0x4001
 8006908:	8913      	ldrh	r3, [r2, #8]
 800690a:	f003 0380 	and.w	r3, r3, #128	; 0x80
 800690e:	b29b      	uxth	r3, r3
 8006910:	2b00      	cmp	r3, #0
 8006912:	d1f9      	bne.n	8006908 <Lcd_Init+0x1d5c>
 8006914:	f44f 6100 	mov.w	r1, #2048	; 0x800
 8006918:	f2c4 0101 	movt	r1, #16385	; 0x4001
 800691c:	68cc      	ldr	r4, [r1, #12]
 800691e:	f647 72ff 	movw	r2, #32767	; 0x7fff
 8006922:	f044 0410 	orr.w	r4, r4, #16
 8006926:	60cc      	str	r4, [r1, #12]
 8006928:	9300      	str	r3, [sp, #0]
 800692a:	9b00      	ldr	r3, [sp, #0]
 800692c:	f2c0 0207 	movt	r2, #7
 8006930:	4293      	cmp	r3, r2
 8006932:	dc05      	bgt.n	8006940 <Lcd_Init+0x1d94>
 8006934:	9b00      	ldr	r3, [sp, #0]
 8006936:	3301      	adds	r3, #1
 8006938:	9300      	str	r3, [sp, #0]
 800693a:	9b00      	ldr	r3, [sp, #0]
 800693c:	4293      	cmp	r3, r2
 800693e:	ddf9      	ble.n	8006934 <Lcd_Init+0x1d88>
 8006940:	f44f 6300 	mov.w	r3, #2048	; 0x800
 8006944:	f2c4 0301 	movt	r3, #16385	; 0x4001
 8006948:	68d9      	ldr	r1, [r3, #12]
 800694a:	f44f 6240 	mov.w	r2, #3072	; 0xc00
 800694e:	f021 0110 	bic.w	r1, r1, #16
 8006952:	60d9      	str	r1, [r3, #12]
 8006954:	f2c4 0201 	movt	r2, #16385	; 0x4001
 8006958:	68d4      	ldr	r4, [r2, #12]
 800695a:	f44f 5340 	mov.w	r3, #12288	; 0x3000
 800695e:	f2c4 0301 	movt	r3, #16385	; 0x4001
 8006962:	f424 7400 	bic.w	r4, r4, #512	; 0x200
 8006966:	2129      	movs	r1, #41	; 0x29
 8006968:	60d4      	str	r4, [r2, #12]
 800696a:	461a      	mov	r2, r3
 800696c:	8199      	strh	r1, [r3, #12]
 800696e:	8913      	ldrh	r3, [r2, #8]
 8006970:	0799      	lsls	r1, r3, #30
 8006972:	d5fc      	bpl.n	800696e <Lcd_Init+0x1dc2>
 8006974:	f44f 5340 	mov.w	r3, #12288	; 0x3000
 8006978:	f2c4 0301 	movt	r3, #16385	; 0x4001
 800697c:	891c      	ldrh	r4, [r3, #8]
 800697e:	f004 0480 	and.w	r4, r4, #128	; 0x80
 8006982:	b2a4      	uxth	r4, r4
 8006984:	2c00      	cmp	r4, #0
 8006986:	d1f9      	bne.n	800697c <Lcd_Init+0x1dd0>
 8006988:	f44f 6300 	mov.w	r3, #2048	; 0x800
 800698c:	f2c4 0301 	movt	r3, #16385	; 0x4001
 8006990:	68da      	ldr	r2, [r3, #12]
 8006992:	f042 0210 	orr.w	r2, r2, #16
 8006996:	60da      	str	r2, [r3, #12]
 8006998:	f7fd fae4 	bl	8003f64 <Lcd_Set_Display_Mode>
 800699c:	4620      	mov	r0, r4
 800699e:	f7fe f85d 	bl	8004a5c <Lcd_Draw_Back_Color>
 80069a2:	9401      	str	r4, [sp, #4]
 80069a4:	9b01      	ldr	r3, [sp, #4]
 80069a6:	f64b 72ff 	movw	r2, #49151	; 0xbfff
 80069aa:	f2c0 0212 	movt	r2, #18
 80069ae:	4293      	cmp	r3, r2
 80069b0:	dc05      	bgt.n	80069be <Lcd_Init+0x1e12>
 80069b2:	9b01      	ldr	r3, [sp, #4]
 80069b4:	3301      	adds	r3, #1
 80069b6:	9301      	str	r3, [sp, #4]
 80069b8:	9b01      	ldr	r3, [sp, #4]
 80069ba:	4293      	cmp	r3, r2
 80069bc:	ddf9      	ble.n	80069b2 <Lcd_Init+0x1e06>
 80069be:	f44f 6300 	mov.w	r3, #2048	; 0x800
 80069c2:	f2c4 0301 	movt	r3, #16385	; 0x4001
 80069c6:	68da      	ldr	r2, [r3, #12]
 80069c8:	f442 6200 	orr.w	r2, r2, #2048	; 0x800
 80069cc:	60da      	str	r2, [r3, #12]
 80069ce:	b005      	add	sp, #20
 80069d0:	bd30      	pop	{r4, r5, pc}
 80069d2:	bf00      	nop

080069d4 <Lcd_Put_Pixel>:
 80069d4:	b4f0      	push	{r4, r5, r6, r7}
 80069d6:	f44f 6300 	mov.w	r3, #2048	; 0x800
 80069da:	f2c4 0301 	movt	r3, #16385	; 0x4001
 80069de:	68df      	ldr	r7, [r3, #12]
 80069e0:	f240 5488 	movw	r4, #1416	; 0x588
 80069e4:	f027 0710 	bic.w	r7, r7, #16
 80069e8:	f2c2 0400 	movt	r4, #8192	; 0x2000
 80069ec:	f44f 6540 	mov.w	r5, #3072	; 0xc00
 80069f0:	8926      	ldrh	r6, [r4, #8]
 80069f2:	f2c4 0501 	movt	r5, #16385	; 0x4001
 80069f6:	60df      	str	r7, [r3, #12]
 80069f8:	68ef      	ldr	r7, [r5, #12]
 80069fa:	f44f 5340 	mov.w	r3, #12288	; 0x3000
 80069fe:	f2c4 0301 	movt	r3, #16385	; 0x4001
 8006a02:	b2f6      	uxtb	r6, r6
 8006a04:	f427 7700 	bic.w	r7, r7, #512	; 0x200
 8006a08:	60ef      	str	r7, [r5, #12]
 8006a0a:	461d      	mov	r5, r3
 8006a0c:	819e      	strh	r6, [r3, #12]
 8006a0e:	892b      	ldrh	r3, [r5, #8]
 8006a10:	079b      	lsls	r3, r3, #30
 8006a12:	d5fc      	bpl.n	8006a0e <Lcd_Put_Pixel+0x3a>
 8006a14:	f44f 5640 	mov.w	r6, #12288	; 0x3000
 8006a18:	f2c4 0601 	movt	r6, #16385	; 0x4001
 8006a1c:	8935      	ldrh	r5, [r6, #8]
 8006a1e:	f44f 5340 	mov.w	r3, #12288	; 0x3000
 8006a22:	062f      	lsls	r7, r5, #24
 8006a24:	f2c4 0301 	movt	r3, #16385	; 0x4001
 8006a28:	d4f8      	bmi.n	8006a1c <Lcd_Put_Pixel+0x48>
 8006a2a:	f44f 6500 	mov.w	r5, #2048	; 0x800
 8006a2e:	f2c4 0501 	movt	r5, #16385	; 0x4001
 8006a32:	68ef      	ldr	r7, [r5, #12]
 8006a34:	f44f 6640 	mov.w	r6, #3072	; 0xc00
 8006a38:	f047 0710 	orr.w	r7, r7, #16
 8006a3c:	60ef      	str	r7, [r5, #12]
 8006a3e:	68ef      	ldr	r7, [r5, #12]
 8006a40:	f2c4 0601 	movt	r6, #16385	; 0x4001
 8006a44:	f027 0710 	bic.w	r7, r7, #16
 8006a48:	60ef      	str	r7, [r5, #12]
 8006a4a:	68f5      	ldr	r5, [r6, #12]
 8006a4c:	0a07      	lsrs	r7, r0, #8
 8006a4e:	f445 7500 	orr.w	r5, r5, #512	; 0x200
 8006a52:	60f5      	str	r5, [r6, #12]
 8006a54:	461d      	mov	r5, r3
 8006a56:	819f      	strh	r7, [r3, #12]
 8006a58:	892b      	ldrh	r3, [r5, #8]
 8006a5a:	079e      	lsls	r6, r3, #30
 8006a5c:	d5fc      	bpl.n	8006a58 <Lcd_Put_Pixel+0x84>
 8006a5e:	f44f 5640 	mov.w	r6, #12288	; 0x3000
 8006a62:	f2c4 0601 	movt	r6, #16385	; 0x4001
 8006a66:	8935      	ldrh	r5, [r6, #8]
 8006a68:	f44f 5340 	mov.w	r3, #12288	; 0x3000
 8006a6c:	062d      	lsls	r5, r5, #24
 8006a6e:	f2c4 0301 	movt	r3, #16385	; 0x4001
 8006a72:	d4f8      	bmi.n	8006a66 <Lcd_Put_Pixel+0x92>
 8006a74:	f44f 6500 	mov.w	r5, #2048	; 0x800
 8006a78:	f2c4 0501 	movt	r5, #16385	; 0x4001
 8006a7c:	f8d5 c00c 	ldr.w	ip, [r5, #12]
 8006a80:	f44f 6640 	mov.w	r6, #3072	; 0xc00
 8006a84:	f04c 0c10 	orr.w	ip, ip, #16
 8006a88:	f8c5 c00c 	str.w	ip, [r5, #12]
 8006a8c:	f8d5 c00c 	ldr.w	ip, [r5, #12]
 8006a90:	f2c4 0601 	movt	r6, #16385	; 0x4001
 8006a94:	f02c 0c10 	bic.w	ip, ip, #16
 8006a98:	f8c5 c00c 	str.w	ip, [r5, #12]
 8006a9c:	68f5      	ldr	r5, [r6, #12]
 8006a9e:	b2c0      	uxtb	r0, r0
 8006aa0:	f445 7500 	orr.w	r5, r5, #512	; 0x200
 8006aa4:	60f5      	str	r5, [r6, #12]
 8006aa6:	461d      	mov	r5, r3
 8006aa8:	8198      	strh	r0, [r3, #12]
 8006aaa:	892b      	ldrh	r3, [r5, #8]
 8006aac:	079e      	lsls	r6, r3, #30
 8006aae:	d5fc      	bpl.n	8006aaa <Lcd_Put_Pixel+0xd6>
 8006ab0:	f44f 5640 	mov.w	r6, #12288	; 0x3000
 8006ab4:	f2c4 0601 	movt	r6, #16385	; 0x4001
 8006ab8:	8935      	ldrh	r5, [r6, #8]
 8006aba:	f44f 5340 	mov.w	r3, #12288	; 0x3000
 8006abe:	062d      	lsls	r5, r5, #24
 8006ac0:	f2c4 0301 	movt	r3, #16385	; 0x4001
 8006ac4:	d4f8      	bmi.n	8006ab8 <Lcd_Put_Pixel+0xe4>
 8006ac6:	f44f 6500 	mov.w	r5, #2048	; 0x800
 8006aca:	f2c4 0501 	movt	r5, #16385	; 0x4001
 8006ace:	f8d5 c00c 	ldr.w	ip, [r5, #12]
 8006ad2:	f44f 6640 	mov.w	r6, #3072	; 0xc00
 8006ad6:	f04c 0c10 	orr.w	ip, ip, #16
 8006ada:	f8c5 c00c 	str.w	ip, [r5, #12]
 8006ade:	f8d5 c00c 	ldr.w	ip, [r5, #12]
 8006ae2:	f2c4 0601 	movt	r6, #16385	; 0x4001
 8006ae6:	f02c 0c10 	bic.w	ip, ip, #16
 8006aea:	f8c5 c00c 	str.w	ip, [r5, #12]
 8006aee:	f8d6 c00c 	ldr.w	ip, [r6, #12]
 8006af2:	461d      	mov	r5, r3
 8006af4:	f44c 7c00 	orr.w	ip, ip, #512	; 0x200
 8006af8:	f8c6 c00c 	str.w	ip, [r6, #12]
 8006afc:	819f      	strh	r7, [r3, #12]
 8006afe:	892b      	ldrh	r3, [r5, #8]
 8006b00:	079e      	lsls	r6, r3, #30
 8006b02:	d5fc      	bpl.n	8006afe <Lcd_Put_Pixel+0x12a>
 8006b04:	f44f 5640 	mov.w	r6, #12288	; 0x3000
 8006b08:	f2c4 0601 	movt	r6, #16385	; 0x4001
 8006b0c:	8935      	ldrh	r5, [r6, #8]
 8006b0e:	f44f 5340 	mov.w	r3, #12288	; 0x3000
 8006b12:	062d      	lsls	r5, r5, #24
 8006b14:	f2c4 0301 	movt	r3, #16385	; 0x4001
 8006b18:	d4f8      	bmi.n	8006b0c <Lcd_Put_Pixel+0x138>
 8006b1a:	f44f 6500 	mov.w	r5, #2048	; 0x800
 8006b1e:	f2c4 0501 	movt	r5, #16385	; 0x4001
 8006b22:	68ef      	ldr	r7, [r5, #12]
 8006b24:	f44f 6640 	mov.w	r6, #3072	; 0xc00
 8006b28:	f047 0710 	orr.w	r7, r7, #16
 8006b2c:	60ef      	str	r7, [r5, #12]
 8006b2e:	68ef      	ldr	r7, [r5, #12]
 8006b30:	f2c4 0601 	movt	r6, #16385	; 0x4001
 8006b34:	f027 0710 	bic.w	r7, r7, #16
 8006b38:	60ef      	str	r7, [r5, #12]
 8006b3a:	68f7      	ldr	r7, [r6, #12]
 8006b3c:	461d      	mov	r5, r3
 8006b3e:	f447 7700 	orr.w	r7, r7, #512	; 0x200
 8006b42:	60f7      	str	r7, [r6, #12]
 8006b44:	8198      	strh	r0, [r3, #12]
 8006b46:	892b      	ldrh	r3, [r5, #8]
 8006b48:	079f      	lsls	r7, r3, #30
 8006b4a:	d5fc      	bpl.n	8006b46 <Lcd_Put_Pixel+0x172>
 8006b4c:	f44f 5540 	mov.w	r5, #12288	; 0x3000
 8006b50:	f2c4 0501 	movt	r5, #16385	; 0x4001
 8006b54:	8928      	ldrh	r0, [r5, #8]
 8006b56:	f44f 5340 	mov.w	r3, #12288	; 0x3000
 8006b5a:	0606      	lsls	r6, r0, #24
 8006b5c:	f2c4 0301 	movt	r3, #16385	; 0x4001
 8006b60:	d4f8      	bmi.n	8006b54 <Lcd_Put_Pixel+0x180>
 8006b62:	f44f 6000 	mov.w	r0, #2048	; 0x800
 8006b66:	f2c4 0001 	movt	r0, #16385	; 0x4001
 8006b6a:	68c6      	ldr	r6, [r0, #12]
 8006b6c:	f44f 6540 	mov.w	r5, #3072	; 0xc00
 8006b70:	f046 0610 	orr.w	r6, r6, #16
 8006b74:	60c6      	str	r6, [r0, #12]
 8006b76:	68c7      	ldr	r7, [r0, #12]
 8006b78:	8966      	ldrh	r6, [r4, #10]
 8006b7a:	f027 0710 	bic.w	r7, r7, #16
 8006b7e:	60c7      	str	r7, [r0, #12]
 8006b80:	f2c4 0501 	movt	r5, #16385	; 0x4001
 8006b84:	68e8      	ldr	r0, [r5, #12]
 8006b86:	b2f6      	uxtb	r6, r6
 8006b88:	f420 7000 	bic.w	r0, r0, #512	; 0x200
 8006b8c:	60e8      	str	r0, [r5, #12]
 8006b8e:	4618      	mov	r0, r3
 8006b90:	819e      	strh	r6, [r3, #12]
 8006b92:	8903      	ldrh	r3, [r0, #8]
 8006b94:	079d      	lsls	r5, r3, #30
 8006b96:	d5fc      	bpl.n	8006b92 <Lcd_Put_Pixel+0x1be>
 8006b98:	f44f 5540 	mov.w	r5, #12288	; 0x3000
 8006b9c:	f2c4 0501 	movt	r5, #16385	; 0x4001
 8006ba0:	8928      	ldrh	r0, [r5, #8]
 8006ba2:	f44f 5340 	mov.w	r3, #12288	; 0x3000
 8006ba6:	0600      	lsls	r0, r0, #24
 8006ba8:	f2c4 0301 	movt	r3, #16385	; 0x4001
 8006bac:	d4f8      	bmi.n	8006ba0 <Lcd_Put_Pixel+0x1cc>
 8006bae:	f44f 6000 	mov.w	r0, #2048	; 0x800
 8006bb2:	f2c4 0001 	movt	r0, #16385	; 0x4001
 8006bb6:	68c6      	ldr	r6, [r0, #12]
 8006bb8:	f44f 6540 	mov.w	r5, #3072	; 0xc00
 8006bbc:	f046 0610 	orr.w	r6, r6, #16
 8006bc0:	60c6      	str	r6, [r0, #12]
 8006bc2:	68c6      	ldr	r6, [r0, #12]
 8006bc4:	f2c4 0501 	movt	r5, #16385	; 0x4001
 8006bc8:	f026 0610 	bic.w	r6, r6, #16
 8006bcc:	60c6      	str	r6, [r0, #12]
 8006bce:	68e8      	ldr	r0, [r5, #12]
 8006bd0:	0a0e      	lsrs	r6, r1, #8
 8006bd2:	f440 7000 	orr.w	r0, r0, #512	; 0x200
 8006bd6:	60e8      	str	r0, [r5, #12]
 8006bd8:	4618      	mov	r0, r3
 8006bda:	819e      	strh	r6, [r3, #12]
 8006bdc:	8903      	ldrh	r3, [r0, #8]
 8006bde:	079b      	lsls	r3, r3, #30
 8006be0:	d5fc      	bpl.n	8006bdc <Lcd_Put_Pixel+0x208>
